ARM GAS  C:\Users\dung\AppData\Local\Temp\ccL28HNM.s 			page 1


   1              		.cpu cortex-m3
   2              		.arch armv7-m
   3              		.fpu softvfp
   4              		.eabi_attribute 20, 1
   5              		.eabi_attribute 21, 1
   6              		.eabi_attribute 23, 3
   7              		.eabi_attribute 24, 1
   8              		.eabi_attribute 25, 1
   9              		.eabi_attribute 26, 1
  10              		.eabi_attribute 30, 1
  11              		.eabi_attribute 34, 1
  12              		.eabi_attribute 18, 4
  13              		.file	"usart.c"
  14              		.text
  15              	.Ltext0:
  16              		.cfi_sections	.debug_frame
  17              		.section	.text.MX_USART1_UART_Init,"ax",%progbits
  18              		.align	1
  19              		.global	MX_USART1_UART_Init
  20              		.syntax unified
  21              		.thumb
  22              		.thumb_func
  24              	MX_USART1_UART_Init:
  25              	.LFB65:
  26              		.file 1 "Core/Src/usart.c"
   1:Core/Src/usart.c **** /**
   2:Core/Src/usart.c ****   ******************************************************************************
   3:Core/Src/usart.c ****   * @file    usart.c
   4:Core/Src/usart.c ****   * @brief   This file provides code for the configuration
   5:Core/Src/usart.c ****   *          of the USART instances.
   6:Core/Src/usart.c ****   ******************************************************************************
   7:Core/Src/usart.c ****   * @attention
   8:Core/Src/usart.c ****   *
   9:Core/Src/usart.c ****   * <h2><center>&copy; Copyright (c) 2022 STMicroelectronics.
  10:Core/Src/usart.c ****   * All rights reserved.</center></h2>
  11:Core/Src/usart.c ****   *
  12:Core/Src/usart.c ****   * This software component is licensed by ST under BSD 3-Clause license,
  13:Core/Src/usart.c ****   * the "License"; You may not use this file except in compliance with the
  14:Core/Src/usart.c ****   * License. You may obtain a copy of the License at:
  15:Core/Src/usart.c ****   *                        opensource.org/licenses/BSD-3-Clause
  16:Core/Src/usart.c ****   *
  17:Core/Src/usart.c ****   ******************************************************************************
  18:Core/Src/usart.c ****   */
  19:Core/Src/usart.c **** 
  20:Core/Src/usart.c **** /* Includes ------------------------------------------------------------------*/
  21:Core/Src/usart.c **** #include "usart.h"
  22:Core/Src/usart.c **** 
  23:Core/Src/usart.c **** /* USER CODE BEGIN 0 */
  24:Core/Src/usart.c **** 
  25:Core/Src/usart.c **** /* USER CODE END 0 */
  26:Core/Src/usart.c **** 
  27:Core/Src/usart.c **** UART_HandleTypeDef huart1;
  28:Core/Src/usart.c **** UART_HandleTypeDef huart2;
  29:Core/Src/usart.c **** 
  30:Core/Src/usart.c **** /* USART1 init function */
  31:Core/Src/usart.c **** 
  32:Core/Src/usart.c **** void MX_USART1_UART_Init(void)
ARM GAS  C:\Users\dung\AppData\Local\Temp\ccL28HNM.s 			page 2


  33:Core/Src/usart.c **** {
  27              		.loc 1 33 1 view -0
  28              		.cfi_startproc
  29              		@ args = 0, pretend = 0, frame = 0
  30              		@ frame_needed = 0, uses_anonymous_args = 0
  31 0000 08B5     		push	{r3, lr}
  32              	.LCFI0:
  33              		.cfi_def_cfa_offset 8
  34              		.cfi_offset 3, -8
  35              		.cfi_offset 14, -4
  34:Core/Src/usart.c **** 
  35:Core/Src/usart.c ****   /* USER CODE BEGIN USART1_Init 0 */
  36:Core/Src/usart.c **** 
  37:Core/Src/usart.c ****   /* USER CODE END USART1_Init 0 */
  38:Core/Src/usart.c **** 
  39:Core/Src/usart.c ****   /* USER CODE BEGIN USART1_Init 1 */
  40:Core/Src/usart.c **** 
  41:Core/Src/usart.c ****   /* USER CODE END USART1_Init 1 */
  42:Core/Src/usart.c ****   huart1.Instance = USART1;
  36              		.loc 1 42 3 view .LVU1
  37              		.loc 1 42 19 is_stmt 0 view .LVU2
  38 0002 0A48     		ldr	r0, .L5
  39 0004 0A4B     		ldr	r3, .L5+4
  40 0006 0360     		str	r3, [r0]
  43:Core/Src/usart.c ****   huart1.Init.BaudRate = 115200;
  41              		.loc 1 43 3 is_stmt 1 view .LVU3
  42              		.loc 1 43 24 is_stmt 0 view .LVU4
  43 0008 4FF4E133 		mov	r3, #115200
  44 000c 4360     		str	r3, [r0, #4]
  44:Core/Src/usart.c ****   huart1.Init.WordLength = UART_WORDLENGTH_8B;
  45              		.loc 1 44 3 is_stmt 1 view .LVU5
  46              		.loc 1 44 26 is_stmt 0 view .LVU6
  47 000e 0023     		movs	r3, #0
  48 0010 8360     		str	r3, [r0, #8]
  45:Core/Src/usart.c ****   huart1.Init.StopBits = UART_STOPBITS_1;
  49              		.loc 1 45 3 is_stmt 1 view .LVU7
  50              		.loc 1 45 24 is_stmt 0 view .LVU8
  51 0012 C360     		str	r3, [r0, #12]
  46:Core/Src/usart.c ****   huart1.Init.Parity = UART_PARITY_NONE;
  52              		.loc 1 46 3 is_stmt 1 view .LVU9
  53              		.loc 1 46 22 is_stmt 0 view .LVU10
  54 0014 0361     		str	r3, [r0, #16]
  47:Core/Src/usart.c ****   huart1.Init.Mode = UART_MODE_TX_RX;
  55              		.loc 1 47 3 is_stmt 1 view .LVU11
  56              		.loc 1 47 20 is_stmt 0 view .LVU12
  57 0016 0C22     		movs	r2, #12
  58 0018 4261     		str	r2, [r0, #20]
  48:Core/Src/usart.c ****   huart1.Init.HwFlowCtl = UART_HWCONTROL_NONE;
  59              		.loc 1 48 3 is_stmt 1 view .LVU13
  60              		.loc 1 48 25 is_stmt 0 view .LVU14
  61 001a 8361     		str	r3, [r0, #24]
  49:Core/Src/usart.c ****   huart1.Init.OverSampling = UART_OVERSAMPLING_16;
  62              		.loc 1 49 3 is_stmt 1 view .LVU15
  63              		.loc 1 49 28 is_stmt 0 view .LVU16
  64 001c C361     		str	r3, [r0, #28]
  50:Core/Src/usart.c ****   if (HAL_UART_Init(&huart1) != HAL_OK)
  65              		.loc 1 50 3 is_stmt 1 view .LVU17
ARM GAS  C:\Users\dung\AppData\Local\Temp\ccL28HNM.s 			page 3


  66              		.loc 1 50 7 is_stmt 0 view .LVU18
  67 001e FFF7FEFF 		bl	HAL_UART_Init
  68              	.LVL0:
  69              		.loc 1 50 6 view .LVU19
  70 0022 00B9     		cbnz	r0, .L4
  71              	.L1:
  51:Core/Src/usart.c ****   {
  52:Core/Src/usart.c ****     Error_Handler();
  53:Core/Src/usart.c ****   }
  54:Core/Src/usart.c ****   /* USER CODE BEGIN USART1_Init 2 */
  55:Core/Src/usart.c **** 
  56:Core/Src/usart.c ****   /* USER CODE END USART1_Init 2 */
  57:Core/Src/usart.c **** 
  58:Core/Src/usart.c **** }
  72              		.loc 1 58 1 view .LVU20
  73 0024 08BD     		pop	{r3, pc}
  74              	.L4:
  52:Core/Src/usart.c ****   }
  75              		.loc 1 52 5 is_stmt 1 view .LVU21
  76 0026 FFF7FEFF 		bl	Error_Handler
  77              	.LVL1:
  78              		.loc 1 58 1 is_stmt 0 view .LVU22
  79 002a FBE7     		b	.L1
  80              	.L6:
  81              		.align	2
  82              	.L5:
  83 002c 00000000 		.word	.LANCHOR0
  84 0030 00380140 		.word	1073821696
  85              		.cfi_endproc
  86              	.LFE65:
  88              		.section	.text.MX_USART2_UART_Init,"ax",%progbits
  89              		.align	1
  90              		.global	MX_USART2_UART_Init
  91              		.syntax unified
  92              		.thumb
  93              		.thumb_func
  95              	MX_USART2_UART_Init:
  96              	.LFB66:
  59:Core/Src/usart.c **** /* USART2 init function */
  60:Core/Src/usart.c **** 
  61:Core/Src/usart.c **** void MX_USART2_UART_Init(void)
  62:Core/Src/usart.c **** {
  97              		.loc 1 62 1 is_stmt 1 view -0
  98              		.cfi_startproc
  99              		@ args = 0, pretend = 0, frame = 0
 100              		@ frame_needed = 0, uses_anonymous_args = 0
 101 0000 08B5     		push	{r3, lr}
 102              	.LCFI1:
 103              		.cfi_def_cfa_offset 8
 104              		.cfi_offset 3, -8
 105              		.cfi_offset 14, -4
  63:Core/Src/usart.c **** 
  64:Core/Src/usart.c ****   /* USER CODE BEGIN USART2_Init 0 */
  65:Core/Src/usart.c **** 
  66:Core/Src/usart.c ****   /* USER CODE END USART2_Init 0 */
  67:Core/Src/usart.c **** 
  68:Core/Src/usart.c ****   /* USER CODE BEGIN USART2_Init 1 */
ARM GAS  C:\Users\dung\AppData\Local\Temp\ccL28HNM.s 			page 4


  69:Core/Src/usart.c **** 
  70:Core/Src/usart.c ****   /* USER CODE END USART2_Init 1 */
  71:Core/Src/usart.c ****   huart2.Instance = USART2;
 106              		.loc 1 71 3 view .LVU24
 107              		.loc 1 71 19 is_stmt 0 view .LVU25
 108 0002 0A48     		ldr	r0, .L11
 109 0004 0A4B     		ldr	r3, .L11+4
 110 0006 0360     		str	r3, [r0]
  72:Core/Src/usart.c ****   huart2.Init.BaudRate = 115200;
 111              		.loc 1 72 3 is_stmt 1 view .LVU26
 112              		.loc 1 72 24 is_stmt 0 view .LVU27
 113 0008 4FF4E133 		mov	r3, #115200
 114 000c 4360     		str	r3, [r0, #4]
  73:Core/Src/usart.c ****   huart2.Init.WordLength = UART_WORDLENGTH_8B;
 115              		.loc 1 73 3 is_stmt 1 view .LVU28
 116              		.loc 1 73 26 is_stmt 0 view .LVU29
 117 000e 0023     		movs	r3, #0
 118 0010 8360     		str	r3, [r0, #8]
  74:Core/Src/usart.c ****   huart2.Init.StopBits = UART_STOPBITS_1;
 119              		.loc 1 74 3 is_stmt 1 view .LVU30
 120              		.loc 1 74 24 is_stmt 0 view .LVU31
 121 0012 C360     		str	r3, [r0, #12]
  75:Core/Src/usart.c ****   huart2.Init.Parity = UART_PARITY_NONE;
 122              		.loc 1 75 3 is_stmt 1 view .LVU32
 123              		.loc 1 75 22 is_stmt 0 view .LVU33
 124 0014 0361     		str	r3, [r0, #16]
  76:Core/Src/usart.c ****   huart2.Init.Mode = UART_MODE_TX_RX;
 125              		.loc 1 76 3 is_stmt 1 view .LVU34
 126              		.loc 1 76 20 is_stmt 0 view .LVU35
 127 0016 0C22     		movs	r2, #12
 128 0018 4261     		str	r2, [r0, #20]
  77:Core/Src/usart.c ****   huart2.Init.HwFlowCtl = UART_HWCONTROL_NONE;
 129              		.loc 1 77 3 is_stmt 1 view .LVU36
 130              		.loc 1 77 25 is_stmt 0 view .LVU37
 131 001a 8361     		str	r3, [r0, #24]
  78:Core/Src/usart.c ****   huart2.Init.OverSampling = UART_OVERSAMPLING_16;
 132              		.loc 1 78 3 is_stmt 1 view .LVU38
 133              		.loc 1 78 28 is_stmt 0 view .LVU39
 134 001c C361     		str	r3, [r0, #28]
  79:Core/Src/usart.c ****   if (HAL_UART_Init(&huart2) != HAL_OK)
 135              		.loc 1 79 3 is_stmt 1 view .LVU40
 136              		.loc 1 79 7 is_stmt 0 view .LVU41
 137 001e FFF7FEFF 		bl	HAL_UART_Init
 138              	.LVL2:
 139              		.loc 1 79 6 view .LVU42
 140 0022 00B9     		cbnz	r0, .L10
 141              	.L7:
  80:Core/Src/usart.c ****   {
  81:Core/Src/usart.c ****     Error_Handler();
  82:Core/Src/usart.c ****   }
  83:Core/Src/usart.c ****   /* USER CODE BEGIN USART2_Init 2 */
  84:Core/Src/usart.c **** 
  85:Core/Src/usart.c ****   /* USER CODE END USART2_Init 2 */
  86:Core/Src/usart.c **** 
  87:Core/Src/usart.c **** }
 142              		.loc 1 87 1 view .LVU43
 143 0024 08BD     		pop	{r3, pc}
ARM GAS  C:\Users\dung\AppData\Local\Temp\ccL28HNM.s 			page 5


 144              	.L10:
  81:Core/Src/usart.c ****   }
 145              		.loc 1 81 5 is_stmt 1 view .LVU44
 146 0026 FFF7FEFF 		bl	Error_Handler
 147              	.LVL3:
 148              		.loc 1 87 1 is_stmt 0 view .LVU45
 149 002a FBE7     		b	.L7
 150              	.L12:
 151              		.align	2
 152              	.L11:
 153 002c 00000000 		.word	.LANCHOR1
 154 0030 00440040 		.word	1073759232
 155              		.cfi_endproc
 156              	.LFE66:
 158              		.section	.text.HAL_UART_MspInit,"ax",%progbits
 159              		.align	1
 160              		.global	HAL_UART_MspInit
 161              		.syntax unified
 162              		.thumb
 163              		.thumb_func
 165              	HAL_UART_MspInit:
 166              	.LVL4:
 167              	.LFB67:
  88:Core/Src/usart.c **** 
  89:Core/Src/usart.c **** void HAL_UART_MspInit(UART_HandleTypeDef* uartHandle)
  90:Core/Src/usart.c **** {
 168              		.loc 1 90 1 is_stmt 1 view -0
 169              		.cfi_startproc
 170              		@ args = 0, pretend = 0, frame = 32
 171              		@ frame_needed = 0, uses_anonymous_args = 0
 172              		.loc 1 90 1 is_stmt 0 view .LVU47
 173 0000 70B5     		push	{r4, r5, r6, lr}
 174              	.LCFI2:
 175              		.cfi_def_cfa_offset 16
 176              		.cfi_offset 4, -16
 177              		.cfi_offset 5, -12
 178              		.cfi_offset 6, -8
 179              		.cfi_offset 14, -4
 180 0002 88B0     		sub	sp, sp, #32
 181              	.LCFI3:
 182              		.cfi_def_cfa_offset 48
  91:Core/Src/usart.c **** 
  92:Core/Src/usart.c ****   GPIO_InitTypeDef GPIO_InitStruct = {0};
 183              		.loc 1 92 3 is_stmt 1 view .LVU48
 184              		.loc 1 92 20 is_stmt 0 view .LVU49
 185 0004 0023     		movs	r3, #0
 186 0006 0493     		str	r3, [sp, #16]
 187 0008 0593     		str	r3, [sp, #20]
 188 000a 0693     		str	r3, [sp, #24]
 189 000c 0793     		str	r3, [sp, #28]
  93:Core/Src/usart.c ****   if(uartHandle->Instance==USART1)
 190              		.loc 1 93 3 is_stmt 1 view .LVU50
 191              		.loc 1 93 16 is_stmt 0 view .LVU51
 192 000e 0368     		ldr	r3, [r0]
 193              		.loc 1 93 5 view .LVU52
 194 0010 304A     		ldr	r2, .L19
 195 0012 9342     		cmp	r3, r2
ARM GAS  C:\Users\dung\AppData\Local\Temp\ccL28HNM.s 			page 6


 196 0014 04D0     		beq	.L17
  94:Core/Src/usart.c ****   {
  95:Core/Src/usart.c ****   /* USER CODE BEGIN USART1_MspInit 0 */
  96:Core/Src/usart.c **** 
  97:Core/Src/usart.c ****   /* USER CODE END USART1_MspInit 0 */
  98:Core/Src/usart.c ****     /* USART1 clock enable */
  99:Core/Src/usart.c ****     __HAL_RCC_USART1_CLK_ENABLE();
 100:Core/Src/usart.c **** 
 101:Core/Src/usart.c ****     __HAL_RCC_GPIOA_CLK_ENABLE();
 102:Core/Src/usart.c ****     /**USART1 GPIO Configuration
 103:Core/Src/usart.c ****     PA9     ------> USART1_TX
 104:Core/Src/usart.c ****     PA10     ------> USART1_RX
 105:Core/Src/usart.c ****     */
 106:Core/Src/usart.c ****     GPIO_InitStruct.Pin = GPIO_PIN_9;
 107:Core/Src/usart.c ****     GPIO_InitStruct.Mode = GPIO_MODE_AF_PP;
 108:Core/Src/usart.c ****     GPIO_InitStruct.Speed = GPIO_SPEED_FREQ_HIGH;
 109:Core/Src/usart.c ****     HAL_GPIO_Init(GPIOA, &GPIO_InitStruct);
 110:Core/Src/usart.c **** 
 111:Core/Src/usart.c ****     GPIO_InitStruct.Pin = GPIO_PIN_10;
 112:Core/Src/usart.c ****     GPIO_InitStruct.Mode = GPIO_MODE_INPUT;
 113:Core/Src/usart.c ****     GPIO_InitStruct.Pull = GPIO_NOPULL;
 114:Core/Src/usart.c ****     HAL_GPIO_Init(GPIOA, &GPIO_InitStruct);
 115:Core/Src/usart.c **** 
 116:Core/Src/usart.c ****   /* USER CODE BEGIN USART1_MspInit 1 */
 117:Core/Src/usart.c **** 
 118:Core/Src/usart.c ****   /* USER CODE END USART1_MspInit 1 */
 119:Core/Src/usart.c ****   }
 120:Core/Src/usart.c ****   else if(uartHandle->Instance==USART2)
 197              		.loc 1 120 8 is_stmt 1 view .LVU53
 198              		.loc 1 120 10 is_stmt 0 view .LVU54
 199 0016 304A     		ldr	r2, .L19+4
 200 0018 9342     		cmp	r3, r2
 201 001a 2BD0     		beq	.L18
 202              	.LVL5:
 203              	.L13:
 121:Core/Src/usart.c ****   {
 122:Core/Src/usart.c ****   /* USER CODE BEGIN USART2_MspInit 0 */
 123:Core/Src/usart.c **** 
 124:Core/Src/usart.c ****   /* USER CODE END USART2_MspInit 0 */
 125:Core/Src/usart.c ****     /* USART2 clock enable */
 126:Core/Src/usart.c ****     __HAL_RCC_USART2_CLK_ENABLE();
 127:Core/Src/usart.c **** 
 128:Core/Src/usart.c ****     __HAL_RCC_GPIOA_CLK_ENABLE();
 129:Core/Src/usart.c ****     /**USART2 GPIO Configuration
 130:Core/Src/usart.c ****     PA2     ------> USART2_TX
 131:Core/Src/usart.c ****     PA3     ------> USART2_RX
 132:Core/Src/usart.c ****     */
 133:Core/Src/usart.c ****     GPIO_InitStruct.Pin = GPIO_PIN_2;
 134:Core/Src/usart.c ****     GPIO_InitStruct.Mode = GPIO_MODE_AF_PP;
 135:Core/Src/usart.c ****     GPIO_InitStruct.Speed = GPIO_SPEED_FREQ_HIGH;
 136:Core/Src/usart.c ****     HAL_GPIO_Init(GPIOA, &GPIO_InitStruct);
 137:Core/Src/usart.c **** 
 138:Core/Src/usart.c ****     GPIO_InitStruct.Pin = GPIO_PIN_3;
 139:Core/Src/usart.c ****     GPIO_InitStruct.Mode = GPIO_MODE_INPUT;
 140:Core/Src/usart.c ****     GPIO_InitStruct.Pull = GPIO_NOPULL;
 141:Core/Src/usart.c ****     HAL_GPIO_Init(GPIOA, &GPIO_InitStruct);
 142:Core/Src/usart.c **** 
ARM GAS  C:\Users\dung\AppData\Local\Temp\ccL28HNM.s 			page 7


 143:Core/Src/usart.c ****     /* USART2 interrupt Init */
 144:Core/Src/usart.c ****     HAL_NVIC_SetPriority(USART2_IRQn, 2, 0);
 145:Core/Src/usart.c ****     HAL_NVIC_EnableIRQ(USART2_IRQn);
 146:Core/Src/usart.c ****   /* USER CODE BEGIN USART2_MspInit 1 */
 147:Core/Src/usart.c **** 
 148:Core/Src/usart.c ****   /* USER CODE END USART2_MspInit 1 */
 149:Core/Src/usart.c ****   }
 150:Core/Src/usart.c **** }
 204              		.loc 1 150 1 view .LVU55
 205 001c 08B0     		add	sp, sp, #32
 206              	.LCFI4:
 207              		.cfi_remember_state
 208              		.cfi_def_cfa_offset 16
 209              		@ sp needed
 210 001e 70BD     		pop	{r4, r5, r6, pc}
 211              	.LVL6:
 212              	.L17:
 213              	.LCFI5:
 214              		.cfi_restore_state
  99:Core/Src/usart.c **** 
 215              		.loc 1 99 5 is_stmt 1 view .LVU56
 216              	.LBB2:
  99:Core/Src/usart.c **** 
 217              		.loc 1 99 5 view .LVU57
  99:Core/Src/usart.c **** 
 218              		.loc 1 99 5 view .LVU58
 219 0020 2E4B     		ldr	r3, .L19+8
 220 0022 9A69     		ldr	r2, [r3, #24]
 221 0024 42F48042 		orr	r2, r2, #16384
 222 0028 9A61     		str	r2, [r3, #24]
  99:Core/Src/usart.c **** 
 223              		.loc 1 99 5 view .LVU59
 224 002a 9A69     		ldr	r2, [r3, #24]
 225 002c 02F48042 		and	r2, r2, #16384
 226 0030 0092     		str	r2, [sp]
  99:Core/Src/usart.c **** 
 227              		.loc 1 99 5 view .LVU60
 228 0032 009A     		ldr	r2, [sp]
 229              	.LBE2:
  99:Core/Src/usart.c **** 
 230              		.loc 1 99 5 view .LVU61
 101:Core/Src/usart.c ****     /**USART1 GPIO Configuration
 231              		.loc 1 101 5 view .LVU62
 232              	.LBB3:
 101:Core/Src/usart.c ****     /**USART1 GPIO Configuration
 233              		.loc 1 101 5 view .LVU63
 101:Core/Src/usart.c ****     /**USART1 GPIO Configuration
 234              		.loc 1 101 5 view .LVU64
 235 0034 9A69     		ldr	r2, [r3, #24]
 236 0036 42F00402 		orr	r2, r2, #4
 237 003a 9A61     		str	r2, [r3, #24]
 101:Core/Src/usart.c ****     /**USART1 GPIO Configuration
 238              		.loc 1 101 5 view .LVU65
 239 003c 9B69     		ldr	r3, [r3, #24]
 240 003e 03F00403 		and	r3, r3, #4
 241 0042 0193     		str	r3, [sp, #4]
 101:Core/Src/usart.c ****     /**USART1 GPIO Configuration
ARM GAS  C:\Users\dung\AppData\Local\Temp\ccL28HNM.s 			page 8


 242              		.loc 1 101 5 view .LVU66
 243 0044 019B     		ldr	r3, [sp, #4]
 244              	.LBE3:
 101:Core/Src/usart.c ****     /**USART1 GPIO Configuration
 245              		.loc 1 101 5 view .LVU67
 106:Core/Src/usart.c ****     GPIO_InitStruct.Mode = GPIO_MODE_AF_PP;
 246              		.loc 1 106 5 view .LVU68
 106:Core/Src/usart.c ****     GPIO_InitStruct.Mode = GPIO_MODE_AF_PP;
 247              		.loc 1 106 25 is_stmt 0 view .LVU69
 248 0046 4FF40073 		mov	r3, #512
 249 004a 0493     		str	r3, [sp, #16]
 107:Core/Src/usart.c ****     GPIO_InitStruct.Speed = GPIO_SPEED_FREQ_HIGH;
 250              		.loc 1 107 5 is_stmt 1 view .LVU70
 107:Core/Src/usart.c ****     GPIO_InitStruct.Speed = GPIO_SPEED_FREQ_HIGH;
 251              		.loc 1 107 26 is_stmt 0 view .LVU71
 252 004c 0223     		movs	r3, #2
 253 004e 0593     		str	r3, [sp, #20]
 108:Core/Src/usart.c ****     HAL_GPIO_Init(GPIOA, &GPIO_InitStruct);
 254              		.loc 1 108 5 is_stmt 1 view .LVU72
 108:Core/Src/usart.c ****     HAL_GPIO_Init(GPIOA, &GPIO_InitStruct);
 255              		.loc 1 108 27 is_stmt 0 view .LVU73
 256 0050 0323     		movs	r3, #3
 257 0052 0793     		str	r3, [sp, #28]
 109:Core/Src/usart.c **** 
 258              		.loc 1 109 5 is_stmt 1 view .LVU74
 259 0054 224C     		ldr	r4, .L19+12
 260 0056 04A9     		add	r1, sp, #16
 261 0058 2046     		mov	r0, r4
 262              	.LVL7:
 109:Core/Src/usart.c **** 
 263              		.loc 1 109 5 is_stmt 0 view .LVU75
 264 005a FFF7FEFF 		bl	HAL_GPIO_Init
 265              	.LVL8:
 111:Core/Src/usart.c ****     GPIO_InitStruct.Mode = GPIO_MODE_INPUT;
 266              		.loc 1 111 5 is_stmt 1 view .LVU76
 111:Core/Src/usart.c ****     GPIO_InitStruct.Mode = GPIO_MODE_INPUT;
 267              		.loc 1 111 25 is_stmt 0 view .LVU77
 268 005e 4FF48063 		mov	r3, #1024
 269 0062 0493     		str	r3, [sp, #16]
 112:Core/Src/usart.c ****     GPIO_InitStruct.Pull = GPIO_NOPULL;
 270              		.loc 1 112 5 is_stmt 1 view .LVU78
 112:Core/Src/usart.c ****     GPIO_InitStruct.Pull = GPIO_NOPULL;
 271              		.loc 1 112 26 is_stmt 0 view .LVU79
 272 0064 0023     		movs	r3, #0
 273 0066 0593     		str	r3, [sp, #20]
 113:Core/Src/usart.c ****     HAL_GPIO_Init(GPIOA, &GPIO_InitStruct);
 274              		.loc 1 113 5 is_stmt 1 view .LVU80
 113:Core/Src/usart.c ****     HAL_GPIO_Init(GPIOA, &GPIO_InitStruct);
 275              		.loc 1 113 26 is_stmt 0 view .LVU81
 276 0068 0693     		str	r3, [sp, #24]
 114:Core/Src/usart.c **** 
 277              		.loc 1 114 5 is_stmt 1 view .LVU82
 278 006a 04A9     		add	r1, sp, #16
 279 006c 2046     		mov	r0, r4
 280 006e FFF7FEFF 		bl	HAL_GPIO_Init
 281              	.LVL9:
 282 0072 D3E7     		b	.L13
ARM GAS  C:\Users\dung\AppData\Local\Temp\ccL28HNM.s 			page 9


 283              	.LVL10:
 284              	.L18:
 126:Core/Src/usart.c **** 
 285              		.loc 1 126 5 view .LVU83
 286              	.LBB4:
 126:Core/Src/usart.c **** 
 287              		.loc 1 126 5 view .LVU84
 126:Core/Src/usart.c **** 
 288              		.loc 1 126 5 view .LVU85
 289 0074 194B     		ldr	r3, .L19+8
 290 0076 DA69     		ldr	r2, [r3, #28]
 291 0078 42F40032 		orr	r2, r2, #131072
 292 007c DA61     		str	r2, [r3, #28]
 126:Core/Src/usart.c **** 
 293              		.loc 1 126 5 view .LVU86
 294 007e DA69     		ldr	r2, [r3, #28]
 295 0080 02F40032 		and	r2, r2, #131072
 296 0084 0292     		str	r2, [sp, #8]
 126:Core/Src/usart.c **** 
 297              		.loc 1 126 5 view .LVU87
 298 0086 029A     		ldr	r2, [sp, #8]
 299              	.LBE4:
 126:Core/Src/usart.c **** 
 300              		.loc 1 126 5 view .LVU88
 128:Core/Src/usart.c ****     /**USART2 GPIO Configuration
 301              		.loc 1 128 5 view .LVU89
 302              	.LBB5:
 128:Core/Src/usart.c ****     /**USART2 GPIO Configuration
 303              		.loc 1 128 5 view .LVU90
 128:Core/Src/usart.c ****     /**USART2 GPIO Configuration
 304              		.loc 1 128 5 view .LVU91
 305 0088 9A69     		ldr	r2, [r3, #24]
 306 008a 42F00402 		orr	r2, r2, #4
 307 008e 9A61     		str	r2, [r3, #24]
 128:Core/Src/usart.c ****     /**USART2 GPIO Configuration
 308              		.loc 1 128 5 view .LVU92
 309 0090 9B69     		ldr	r3, [r3, #24]
 310 0092 03F00403 		and	r3, r3, #4
 311 0096 0393     		str	r3, [sp, #12]
 128:Core/Src/usart.c ****     /**USART2 GPIO Configuration
 312              		.loc 1 128 5 view .LVU93
 313 0098 039B     		ldr	r3, [sp, #12]
 314              	.LBE5:
 128:Core/Src/usart.c ****     /**USART2 GPIO Configuration
 315              		.loc 1 128 5 view .LVU94
 133:Core/Src/usart.c ****     GPIO_InitStruct.Mode = GPIO_MODE_AF_PP;
 316              		.loc 1 133 5 view .LVU95
 133:Core/Src/usart.c ****     GPIO_InitStruct.Mode = GPIO_MODE_AF_PP;
 317              		.loc 1 133 25 is_stmt 0 view .LVU96
 318 009a 0423     		movs	r3, #4
 319 009c 0493     		str	r3, [sp, #16]
 134:Core/Src/usart.c ****     GPIO_InitStruct.Speed = GPIO_SPEED_FREQ_HIGH;
 320              		.loc 1 134 5 is_stmt 1 view .LVU97
 134:Core/Src/usart.c ****     GPIO_InitStruct.Speed = GPIO_SPEED_FREQ_HIGH;
 321              		.loc 1 134 26 is_stmt 0 view .LVU98
 322 009e 0225     		movs	r5, #2
 323 00a0 0595     		str	r5, [sp, #20]
ARM GAS  C:\Users\dung\AppData\Local\Temp\ccL28HNM.s 			page 10


 135:Core/Src/usart.c ****     HAL_GPIO_Init(GPIOA, &GPIO_InitStruct);
 324              		.loc 1 135 5 is_stmt 1 view .LVU99
 135:Core/Src/usart.c ****     HAL_GPIO_Init(GPIOA, &GPIO_InitStruct);
 325              		.loc 1 135 27 is_stmt 0 view .LVU100
 326 00a2 0323     		movs	r3, #3
 327 00a4 0793     		str	r3, [sp, #28]
 136:Core/Src/usart.c **** 
 328              		.loc 1 136 5 is_stmt 1 view .LVU101
 329 00a6 0E4E     		ldr	r6, .L19+12
 330 00a8 04A9     		add	r1, sp, #16
 331 00aa 3046     		mov	r0, r6
 332              	.LVL11:
 136:Core/Src/usart.c **** 
 333              		.loc 1 136 5 is_stmt 0 view .LVU102
 334 00ac FFF7FEFF 		bl	HAL_GPIO_Init
 335              	.LVL12:
 138:Core/Src/usart.c ****     GPIO_InitStruct.Mode = GPIO_MODE_INPUT;
 336              		.loc 1 138 5 is_stmt 1 view .LVU103
 138:Core/Src/usart.c ****     GPIO_InitStruct.Mode = GPIO_MODE_INPUT;
 337              		.loc 1 138 25 is_stmt 0 view .LVU104
 338 00b0 0823     		movs	r3, #8
 339 00b2 0493     		str	r3, [sp, #16]
 139:Core/Src/usart.c ****     GPIO_InitStruct.Pull = GPIO_NOPULL;
 340              		.loc 1 139 5 is_stmt 1 view .LVU105
 139:Core/Src/usart.c ****     GPIO_InitStruct.Pull = GPIO_NOPULL;
 341              		.loc 1 139 26 is_stmt 0 view .LVU106
 342 00b4 0024     		movs	r4, #0
 343 00b6 0594     		str	r4, [sp, #20]
 140:Core/Src/usart.c ****     HAL_GPIO_Init(GPIOA, &GPIO_InitStruct);
 344              		.loc 1 140 5 is_stmt 1 view .LVU107
 140:Core/Src/usart.c ****     HAL_GPIO_Init(GPIOA, &GPIO_InitStruct);
 345              		.loc 1 140 26 is_stmt 0 view .LVU108
 346 00b8 0694     		str	r4, [sp, #24]
 141:Core/Src/usart.c **** 
 347              		.loc 1 141 5 is_stmt 1 view .LVU109
 348 00ba 04A9     		add	r1, sp, #16
 349 00bc 3046     		mov	r0, r6
 350 00be FFF7FEFF 		bl	HAL_GPIO_Init
 351              	.LVL13:
 144:Core/Src/usart.c ****     HAL_NVIC_EnableIRQ(USART2_IRQn);
 352              		.loc 1 144 5 view .LVU110
 353 00c2 2246     		mov	r2, r4
 354 00c4 2946     		mov	r1, r5
 355 00c6 2620     		movs	r0, #38
 356 00c8 FFF7FEFF 		bl	HAL_NVIC_SetPriority
 357              	.LVL14:
 145:Core/Src/usart.c ****   /* USER CODE BEGIN USART2_MspInit 1 */
 358              		.loc 1 145 5 view .LVU111
 359 00cc 2620     		movs	r0, #38
 360 00ce FFF7FEFF 		bl	HAL_NVIC_EnableIRQ
 361              	.LVL15:
 362              		.loc 1 150 1 is_stmt 0 view .LVU112
 363 00d2 A3E7     		b	.L13
 364              	.L20:
 365              		.align	2
 366              	.L19:
 367 00d4 00380140 		.word	1073821696
ARM GAS  C:\Users\dung\AppData\Local\Temp\ccL28HNM.s 			page 11


 368 00d8 00440040 		.word	1073759232
 369 00dc 00100240 		.word	1073876992
 370 00e0 00080140 		.word	1073809408
 371              		.cfi_endproc
 372              	.LFE67:
 374              		.section	.text.HAL_UART_MspDeInit,"ax",%progbits
 375              		.align	1
 376              		.global	HAL_UART_MspDeInit
 377              		.syntax unified
 378              		.thumb
 379              		.thumb_func
 381              	HAL_UART_MspDeInit:
 382              	.LVL16:
 383              	.LFB68:
 151:Core/Src/usart.c **** 
 152:Core/Src/usart.c **** void HAL_UART_MspDeInit(UART_HandleTypeDef* uartHandle)
 153:Core/Src/usart.c **** {
 384              		.loc 1 153 1 is_stmt 1 view -0
 385              		.cfi_startproc
 386              		@ args = 0, pretend = 0, frame = 0
 387              		@ frame_needed = 0, uses_anonymous_args = 0
 388              		.loc 1 153 1 is_stmt 0 view .LVU114
 389 0000 08B5     		push	{r3, lr}
 390              	.LCFI6:
 391              		.cfi_def_cfa_offset 8
 392              		.cfi_offset 3, -8
 393              		.cfi_offset 14, -4
 154:Core/Src/usart.c **** 
 155:Core/Src/usart.c ****   if(uartHandle->Instance==USART1)
 394              		.loc 1 155 3 is_stmt 1 view .LVU115
 395              		.loc 1 155 16 is_stmt 0 view .LVU116
 396 0002 0368     		ldr	r3, [r0]
 397              		.loc 1 155 5 view .LVU117
 398 0004 104A     		ldr	r2, .L27
 399 0006 9342     		cmp	r3, r2
 400 0008 03D0     		beq	.L25
 156:Core/Src/usart.c ****   {
 157:Core/Src/usart.c ****   /* USER CODE BEGIN USART1_MspDeInit 0 */
 158:Core/Src/usart.c **** 
 159:Core/Src/usart.c ****   /* USER CODE END USART1_MspDeInit 0 */
 160:Core/Src/usart.c ****     /* Peripheral clock disable */
 161:Core/Src/usart.c ****     __HAL_RCC_USART1_CLK_DISABLE();
 162:Core/Src/usart.c **** 
 163:Core/Src/usart.c ****     /**USART1 GPIO Configuration
 164:Core/Src/usart.c ****     PA9     ------> USART1_TX
 165:Core/Src/usart.c ****     PA10     ------> USART1_RX
 166:Core/Src/usart.c ****     */
 167:Core/Src/usart.c ****     HAL_GPIO_DeInit(GPIOA, GPIO_PIN_9|GPIO_PIN_10);
 168:Core/Src/usart.c **** 
 169:Core/Src/usart.c ****   /* USER CODE BEGIN USART1_MspDeInit 1 */
 170:Core/Src/usart.c **** 
 171:Core/Src/usart.c ****   /* USER CODE END USART1_MspDeInit 1 */
 172:Core/Src/usart.c ****   }
 173:Core/Src/usart.c ****   else if(uartHandle->Instance==USART2)
 401              		.loc 1 173 8 is_stmt 1 view .LVU118
 402              		.loc 1 173 10 is_stmt 0 view .LVU119
 403 000a 104A     		ldr	r2, .L27+4
ARM GAS  C:\Users\dung\AppData\Local\Temp\ccL28HNM.s 			page 12


 404 000c 9342     		cmp	r3, r2
 405 000e 0CD0     		beq	.L26
 406              	.LVL17:
 407              	.L21:
 174:Core/Src/usart.c ****   {
 175:Core/Src/usart.c ****   /* USER CODE BEGIN USART2_MspDeInit 0 */
 176:Core/Src/usart.c **** 
 177:Core/Src/usart.c ****   /* USER CODE END USART2_MspDeInit 0 */
 178:Core/Src/usart.c ****     /* Peripheral clock disable */
 179:Core/Src/usart.c ****     __HAL_RCC_USART2_CLK_DISABLE();
 180:Core/Src/usart.c **** 
 181:Core/Src/usart.c ****     /**USART2 GPIO Configuration
 182:Core/Src/usart.c ****     PA2     ------> USART2_TX
 183:Core/Src/usart.c ****     PA3     ------> USART2_RX
 184:Core/Src/usart.c ****     */
 185:Core/Src/usart.c ****     HAL_GPIO_DeInit(GPIOA, GPIO_PIN_2|GPIO_PIN_3);
 186:Core/Src/usart.c **** 
 187:Core/Src/usart.c ****     /* USART2 interrupt Deinit */
 188:Core/Src/usart.c ****     HAL_NVIC_DisableIRQ(USART2_IRQn);
 189:Core/Src/usart.c ****   /* USER CODE BEGIN USART2_MspDeInit 1 */
 190:Core/Src/usart.c **** 
 191:Core/Src/usart.c ****   /* USER CODE END USART2_MspDeInit 1 */
 192:Core/Src/usart.c ****   }
 193:Core/Src/usart.c **** }
 408              		.loc 1 193 1 view .LVU120
 409 0010 08BD     		pop	{r3, pc}
 410              	.LVL18:
 411              	.L25:
 161:Core/Src/usart.c **** 
 412              		.loc 1 161 5 is_stmt 1 view .LVU121
 413 0012 02F55842 		add	r2, r2, #55296
 414 0016 9369     		ldr	r3, [r2, #24]
 415 0018 23F48043 		bic	r3, r3, #16384
 416 001c 9361     		str	r3, [r2, #24]
 167:Core/Src/usart.c **** 
 417              		.loc 1 167 5 view .LVU122
 418 001e 4FF4C061 		mov	r1, #1536
 419 0022 0B48     		ldr	r0, .L27+8
 420              	.LVL19:
 167:Core/Src/usart.c **** 
 421              		.loc 1 167 5 is_stmt 0 view .LVU123
 422 0024 FFF7FEFF 		bl	HAL_GPIO_DeInit
 423              	.LVL20:
 424 0028 F2E7     		b	.L21
 425              	.LVL21:
 426              	.L26:
 179:Core/Src/usart.c **** 
 427              		.loc 1 179 5 is_stmt 1 view .LVU124
 428 002a 02F5E632 		add	r2, r2, #117760
 429 002e D369     		ldr	r3, [r2, #28]
 430 0030 23F40033 		bic	r3, r3, #131072
 431 0034 D361     		str	r3, [r2, #28]
 185:Core/Src/usart.c **** 
 432              		.loc 1 185 5 view .LVU125
 433 0036 0C21     		movs	r1, #12
 434 0038 0548     		ldr	r0, .L27+8
 435              	.LVL22:
ARM GAS  C:\Users\dung\AppData\Local\Temp\ccL28HNM.s 			page 13


 185:Core/Src/usart.c **** 
 436              		.loc 1 185 5 is_stmt 0 view .LVU126
 437 003a FFF7FEFF 		bl	HAL_GPIO_DeInit
 438              	.LVL23:
 188:Core/Src/usart.c ****   /* USER CODE BEGIN USART2_MspDeInit 1 */
 439              		.loc 1 188 5 is_stmt 1 view .LVU127
 440 003e 2620     		movs	r0, #38
 441 0040 FFF7FEFF 		bl	HAL_NVIC_DisableIRQ
 442              	.LVL24:
 443              		.loc 1 193 1 is_stmt 0 view .LVU128
 444 0044 E4E7     		b	.L21
 445              	.L28:
 446 0046 00BF     		.align	2
 447              	.L27:
 448 0048 00380140 		.word	1073821696
 449 004c 00440040 		.word	1073759232
 450 0050 00080140 		.word	1073809408
 451              		.cfi_endproc
 452              	.LFE68:
 454              		.global	huart2
 455              		.global	huart1
 456              		.section	.bss.huart1,"aw",%nobits
 457              		.align	2
 458              		.set	.LANCHOR0,. + 0
 461              	huart1:
 462 0000 00000000 		.space	68
 462      00000000 
 462      00000000 
 462      00000000 
 462      00000000 
 463              		.section	.bss.huart2,"aw",%nobits
 464              		.align	2
 465              		.set	.LANCHOR1,. + 0
 468              	huart2:
 469 0000 00000000 		.space	68
 469      00000000 
 469      00000000 
 469      00000000 
 469      00000000 
 470              		.text
 471              	.Letext0:
 472              		.file 2 "c:\\program files (x86)\\gcc-arm-none-eabi-10.3-2021.10-win32\\gcc-arm-none-eabi-10.3-202
 473              		.file 3 "c:\\program files (x86)\\gcc-arm-none-eabi-10.3-2021.10-win32\\gcc-arm-none-eabi-10.3-202
 474              		.file 4 "Drivers/CMSIS/Device/ST/STM32F1xx/Include/stm32f103xb.h"
 475              		.file 5 "Drivers/STM32F1xx_HAL_Driver/Inc/stm32f1xx_hal_def.h"
 476              		.file 6 "Drivers/STM32F1xx_HAL_Driver/Inc/stm32f1xx_hal_gpio.h"
 477              		.file 7 "Drivers/STM32F1xx_HAL_Driver/Inc/stm32f1xx_hal_dma.h"
 478              		.file 8 "Drivers/STM32F1xx_HAL_Driver/Inc/stm32f1xx_hal_uart.h"
 479              		.file 9 "Core/Inc/usart.h"
 480              		.file 10 "Drivers/STM32F1xx_HAL_Driver/Inc/stm32f1xx_hal_cortex.h"
 481              		.file 11 "Core/Inc/main.h"
ARM GAS  C:\Users\dung\AppData\Local\Temp\ccL28HNM.s 			page 14

