ARM GAS  C:\Users\dung\AppData\Local\Temp\ccUgOtvD.s 			page 1


   1              		.cpu cortex-m3
   2              		.arch armv7-m
   3              		.fpu softvfp
   4              		.eabi_attribute 20, 1
   5              		.eabi_attribute 21, 1
   6              		.eabi_attribute 23, 3
   7              		.eabi_attribute 24, 1
   8              		.eabi_attribute 25, 1
   9              		.eabi_attribute 26, 1
  10              		.eabi_attribute 30, 1
  11              		.eabi_attribute 34, 1
  12              		.eabi_attribute 18, 4
  13              		.file	"usart.c"
  14              		.text
  15              	.Ltext0:
  16              		.cfi_sections	.debug_frame
  17              		.section	.text.MX_USART1_UART_Init,"ax",%progbits
  18              		.align	1
  19              		.global	MX_USART1_UART_Init
  20              		.syntax unified
  21              		.thumb
  22              		.thumb_func
  24              	MX_USART1_UART_Init:
  25              	.LFB65:
  26              		.file 1 "Core/Src/usart.c"
   1:Core/Src/usart.c **** /**
   2:Core/Src/usart.c ****   ******************************************************************************
   3:Core/Src/usart.c ****   * @file    usart.c
   4:Core/Src/usart.c ****   * @brief   This file provides code for the configuration
   5:Core/Src/usart.c ****   *          of the USART instances.
   6:Core/Src/usart.c ****   ******************************************************************************
   7:Core/Src/usart.c ****   * @attention
   8:Core/Src/usart.c ****   *
   9:Core/Src/usart.c ****   * <h2><center>&copy; Copyright (c) 2022 STMicroelectronics.
  10:Core/Src/usart.c ****   * All rights reserved.</center></h2>
  11:Core/Src/usart.c ****   *
  12:Core/Src/usart.c ****   * This software component is licensed by ST under BSD 3-Clause license,
  13:Core/Src/usart.c ****   * the "License"; You may not use this file except in compliance with the
  14:Core/Src/usart.c ****   * License. You may obtain a copy of the License at:
  15:Core/Src/usart.c ****   *                        opensource.org/licenses/BSD-3-Clause
  16:Core/Src/usart.c ****   *
  17:Core/Src/usart.c ****   ******************************************************************************
  18:Core/Src/usart.c ****   */
  19:Core/Src/usart.c **** 
  20:Core/Src/usart.c **** /* Includes ------------------------------------------------------------------*/
  21:Core/Src/usart.c **** #include "usart.h"
  22:Core/Src/usart.c **** 
  23:Core/Src/usart.c **** /* USER CODE BEGIN 0 */
  24:Core/Src/usart.c **** 
  25:Core/Src/usart.c **** /* USER CODE END 0 */
  26:Core/Src/usart.c **** 
  27:Core/Src/usart.c **** UART_HandleTypeDef huart1;
  28:Core/Src/usart.c **** UART_HandleTypeDef huart2;
  29:Core/Src/usart.c **** UART_HandleTypeDef huart3;
  30:Core/Src/usart.c **** 
  31:Core/Src/usart.c **** /* USART1 init function */
  32:Core/Src/usart.c **** 
ARM GAS  C:\Users\dung\AppData\Local\Temp\ccUgOtvD.s 			page 2


  33:Core/Src/usart.c **** void MX_USART1_UART_Init(void)
  34:Core/Src/usart.c **** {
  27              		.loc 1 34 1 view -0
  28              		.cfi_startproc
  29              		@ args = 0, pretend = 0, frame = 0
  30              		@ frame_needed = 0, uses_anonymous_args = 0
  31 0000 08B5     		push	{r3, lr}
  32              	.LCFI0:
  33              		.cfi_def_cfa_offset 8
  34              		.cfi_offset 3, -8
  35              		.cfi_offset 14, -4
  35:Core/Src/usart.c **** 
  36:Core/Src/usart.c ****   /* USER CODE BEGIN USART1_Init 0 */
  37:Core/Src/usart.c **** 
  38:Core/Src/usart.c ****   /* USER CODE END USART1_Init 0 */
  39:Core/Src/usart.c **** 
  40:Core/Src/usart.c ****   /* USER CODE BEGIN USART1_Init 1 */
  41:Core/Src/usart.c **** 
  42:Core/Src/usart.c ****   /* USER CODE END USART1_Init 1 */
  43:Core/Src/usart.c ****   huart1.Instance = USART1;
  36              		.loc 1 43 3 view .LVU1
  37              		.loc 1 43 19 is_stmt 0 view .LVU2
  38 0002 0A48     		ldr	r0, .L5
  39 0004 0A4B     		ldr	r3, .L5+4
  40 0006 0360     		str	r3, [r0]
  44:Core/Src/usart.c ****   huart1.Init.BaudRate = 115200;
  41              		.loc 1 44 3 is_stmt 1 view .LVU3
  42              		.loc 1 44 24 is_stmt 0 view .LVU4
  43 0008 4FF4E133 		mov	r3, #115200
  44 000c 4360     		str	r3, [r0, #4]
  45:Core/Src/usart.c ****   huart1.Init.WordLength = UART_WORDLENGTH_8B;
  45              		.loc 1 45 3 is_stmt 1 view .LVU5
  46              		.loc 1 45 26 is_stmt 0 view .LVU6
  47 000e 0023     		movs	r3, #0
  48 0010 8360     		str	r3, [r0, #8]
  46:Core/Src/usart.c ****   huart1.Init.StopBits = UART_STOPBITS_1;
  49              		.loc 1 46 3 is_stmt 1 view .LVU7
  50              		.loc 1 46 24 is_stmt 0 view .LVU8
  51 0012 C360     		str	r3, [r0, #12]
  47:Core/Src/usart.c ****   huart1.Init.Parity = UART_PARITY_NONE;
  52              		.loc 1 47 3 is_stmt 1 view .LVU9
  53              		.loc 1 47 22 is_stmt 0 view .LVU10
  54 0014 0361     		str	r3, [r0, #16]
  48:Core/Src/usart.c ****   huart1.Init.Mode = UART_MODE_TX_RX;
  55              		.loc 1 48 3 is_stmt 1 view .LVU11
  56              		.loc 1 48 20 is_stmt 0 view .LVU12
  57 0016 0C22     		movs	r2, #12
  58 0018 4261     		str	r2, [r0, #20]
  49:Core/Src/usart.c ****   huart1.Init.HwFlowCtl = UART_HWCONTROL_NONE;
  59              		.loc 1 49 3 is_stmt 1 view .LVU13
  60              		.loc 1 49 25 is_stmt 0 view .LVU14
  61 001a 8361     		str	r3, [r0, #24]
  50:Core/Src/usart.c ****   huart1.Init.OverSampling = UART_OVERSAMPLING_16;
  62              		.loc 1 50 3 is_stmt 1 view .LVU15
  63              		.loc 1 50 28 is_stmt 0 view .LVU16
  64 001c C361     		str	r3, [r0, #28]
  51:Core/Src/usart.c ****   if (HAL_UART_Init(&huart1) != HAL_OK)
ARM GAS  C:\Users\dung\AppData\Local\Temp\ccUgOtvD.s 			page 3


  65              		.loc 1 51 3 is_stmt 1 view .LVU17
  66              		.loc 1 51 7 is_stmt 0 view .LVU18
  67 001e FFF7FEFF 		bl	HAL_UART_Init
  68              	.LVL0:
  69              		.loc 1 51 6 view .LVU19
  70 0022 00B9     		cbnz	r0, .L4
  71              	.L1:
  52:Core/Src/usart.c ****   {
  53:Core/Src/usart.c ****     Error_Handler();
  54:Core/Src/usart.c ****   }
  55:Core/Src/usart.c ****   /* USER CODE BEGIN USART1_Init 2 */
  56:Core/Src/usart.c **** 
  57:Core/Src/usart.c ****   /* USER CODE END USART1_Init 2 */
  58:Core/Src/usart.c **** 
  59:Core/Src/usart.c **** }
  72              		.loc 1 59 1 view .LVU20
  73 0024 08BD     		pop	{r3, pc}
  74              	.L4:
  53:Core/Src/usart.c ****   }
  75              		.loc 1 53 5 is_stmt 1 view .LVU21
  76 0026 FFF7FEFF 		bl	Error_Handler
  77              	.LVL1:
  78              		.loc 1 59 1 is_stmt 0 view .LVU22
  79 002a FBE7     		b	.L1
  80              	.L6:
  81              		.align	2
  82              	.L5:
  83 002c 00000000 		.word	.LANCHOR0
  84 0030 00380140 		.word	1073821696
  85              		.cfi_endproc
  86              	.LFE65:
  88              		.section	.text.MX_USART2_UART_Init,"ax",%progbits
  89              		.align	1
  90              		.global	MX_USART2_UART_Init
  91              		.syntax unified
  92              		.thumb
  93              		.thumb_func
  95              	MX_USART2_UART_Init:
  96              	.LFB66:
  60:Core/Src/usart.c **** /* USART2 init function */
  61:Core/Src/usart.c **** 
  62:Core/Src/usart.c **** void MX_USART2_UART_Init(void)
  63:Core/Src/usart.c **** {
  97              		.loc 1 63 1 is_stmt 1 view -0
  98              		.cfi_startproc
  99              		@ args = 0, pretend = 0, frame = 0
 100              		@ frame_needed = 0, uses_anonymous_args = 0
 101 0000 08B5     		push	{r3, lr}
 102              	.LCFI1:
 103              		.cfi_def_cfa_offset 8
 104              		.cfi_offset 3, -8
 105              		.cfi_offset 14, -4
  64:Core/Src/usart.c **** 
  65:Core/Src/usart.c ****   /* USER CODE BEGIN USART2_Init 0 */
  66:Core/Src/usart.c **** 
  67:Core/Src/usart.c ****   /* USER CODE END USART2_Init 0 */
  68:Core/Src/usart.c **** 
ARM GAS  C:\Users\dung\AppData\Local\Temp\ccUgOtvD.s 			page 4


  69:Core/Src/usart.c ****   /* USER CODE BEGIN USART2_Init 1 */
  70:Core/Src/usart.c **** 
  71:Core/Src/usart.c ****   /* USER CODE END USART2_Init 1 */
  72:Core/Src/usart.c ****   huart2.Instance = USART2;
 106              		.loc 1 72 3 view .LVU24
 107              		.loc 1 72 19 is_stmt 0 view .LVU25
 108 0002 0A48     		ldr	r0, .L11
 109 0004 0A4B     		ldr	r3, .L11+4
 110 0006 0360     		str	r3, [r0]
  73:Core/Src/usart.c ****   huart2.Init.BaudRate = 115200;
 111              		.loc 1 73 3 is_stmt 1 view .LVU26
 112              		.loc 1 73 24 is_stmt 0 view .LVU27
 113 0008 4FF4E133 		mov	r3, #115200
 114 000c 4360     		str	r3, [r0, #4]
  74:Core/Src/usart.c ****   huart2.Init.WordLength = UART_WORDLENGTH_8B;
 115              		.loc 1 74 3 is_stmt 1 view .LVU28
 116              		.loc 1 74 26 is_stmt 0 view .LVU29
 117 000e 0023     		movs	r3, #0
 118 0010 8360     		str	r3, [r0, #8]
  75:Core/Src/usart.c ****   huart2.Init.StopBits = UART_STOPBITS_1;
 119              		.loc 1 75 3 is_stmt 1 view .LVU30
 120              		.loc 1 75 24 is_stmt 0 view .LVU31
 121 0012 C360     		str	r3, [r0, #12]
  76:Core/Src/usart.c ****   huart2.Init.Parity = UART_PARITY_NONE;
 122              		.loc 1 76 3 is_stmt 1 view .LVU32
 123              		.loc 1 76 22 is_stmt 0 view .LVU33
 124 0014 0361     		str	r3, [r0, #16]
  77:Core/Src/usart.c ****   huart2.Init.Mode = UART_MODE_TX_RX;
 125              		.loc 1 77 3 is_stmt 1 view .LVU34
 126              		.loc 1 77 20 is_stmt 0 view .LVU35
 127 0016 0C22     		movs	r2, #12
 128 0018 4261     		str	r2, [r0, #20]
  78:Core/Src/usart.c ****   huart2.Init.HwFlowCtl = UART_HWCONTROL_NONE;
 129              		.loc 1 78 3 is_stmt 1 view .LVU36
 130              		.loc 1 78 25 is_stmt 0 view .LVU37
 131 001a 8361     		str	r3, [r0, #24]
  79:Core/Src/usart.c ****   huart2.Init.OverSampling = UART_OVERSAMPLING_16;
 132              		.loc 1 79 3 is_stmt 1 view .LVU38
 133              		.loc 1 79 28 is_stmt 0 view .LVU39
 134 001c C361     		str	r3, [r0, #28]
  80:Core/Src/usart.c ****   if (HAL_UART_Init(&huart2) != HAL_OK)
 135              		.loc 1 80 3 is_stmt 1 view .LVU40
 136              		.loc 1 80 7 is_stmt 0 view .LVU41
 137 001e FFF7FEFF 		bl	HAL_UART_Init
 138              	.LVL2:
 139              		.loc 1 80 6 view .LVU42
 140 0022 00B9     		cbnz	r0, .L10
 141              	.L7:
  81:Core/Src/usart.c ****   {
  82:Core/Src/usart.c ****     Error_Handler();
  83:Core/Src/usart.c ****   }
  84:Core/Src/usart.c ****   /* USER CODE BEGIN USART2_Init 2 */
  85:Core/Src/usart.c **** 
  86:Core/Src/usart.c ****   /* USER CODE END USART2_Init 2 */
  87:Core/Src/usart.c **** 
  88:Core/Src/usart.c **** }
 142              		.loc 1 88 1 view .LVU43
ARM GAS  C:\Users\dung\AppData\Local\Temp\ccUgOtvD.s 			page 5


 143 0024 08BD     		pop	{r3, pc}
 144              	.L10:
  82:Core/Src/usart.c ****   }
 145              		.loc 1 82 5 is_stmt 1 view .LVU44
 146 0026 FFF7FEFF 		bl	Error_Handler
 147              	.LVL3:
 148              		.loc 1 88 1 is_stmt 0 view .LVU45
 149 002a FBE7     		b	.L7
 150              	.L12:
 151              		.align	2
 152              	.L11:
 153 002c 00000000 		.word	.LANCHOR1
 154 0030 00440040 		.word	1073759232
 155              		.cfi_endproc
 156              	.LFE66:
 158              		.section	.text.MX_USART3_UART_Init,"ax",%progbits
 159              		.align	1
 160              		.global	MX_USART3_UART_Init
 161              		.syntax unified
 162              		.thumb
 163              		.thumb_func
 165              	MX_USART3_UART_Init:
 166              	.LFB67:
  89:Core/Src/usart.c **** /* USART3 init function */
  90:Core/Src/usart.c **** 
  91:Core/Src/usart.c **** void MX_USART3_UART_Init(void)
  92:Core/Src/usart.c **** {
 167              		.loc 1 92 1 is_stmt 1 view -0
 168              		.cfi_startproc
 169              		@ args = 0, pretend = 0, frame = 0
 170              		@ frame_needed = 0, uses_anonymous_args = 0
 171 0000 08B5     		push	{r3, lr}
 172              	.LCFI2:
 173              		.cfi_def_cfa_offset 8
 174              		.cfi_offset 3, -8
 175              		.cfi_offset 14, -4
  93:Core/Src/usart.c **** 
  94:Core/Src/usart.c ****   /* USER CODE BEGIN USART3_Init 0 */
  95:Core/Src/usart.c **** 
  96:Core/Src/usart.c ****   /* USER CODE END USART3_Init 0 */
  97:Core/Src/usart.c **** 
  98:Core/Src/usart.c ****   /* USER CODE BEGIN USART3_Init 1 */
  99:Core/Src/usart.c **** 
 100:Core/Src/usart.c ****   /* USER CODE END USART3_Init 1 */
 101:Core/Src/usart.c ****   huart3.Instance = USART3;
 176              		.loc 1 101 3 view .LVU47
 177              		.loc 1 101 19 is_stmt 0 view .LVU48
 178 0002 0A48     		ldr	r0, .L17
 179 0004 0A4B     		ldr	r3, .L17+4
 180 0006 0360     		str	r3, [r0]
 102:Core/Src/usart.c ****   huart3.Init.BaudRate = 9600;
 181              		.loc 1 102 3 is_stmt 1 view .LVU49
 182              		.loc 1 102 24 is_stmt 0 view .LVU50
 183 0008 4FF41653 		mov	r3, #9600
 184 000c 4360     		str	r3, [r0, #4]
 103:Core/Src/usart.c ****   huart3.Init.WordLength = UART_WORDLENGTH_8B;
 185              		.loc 1 103 3 is_stmt 1 view .LVU51
ARM GAS  C:\Users\dung\AppData\Local\Temp\ccUgOtvD.s 			page 6


 186              		.loc 1 103 26 is_stmt 0 view .LVU52
 187 000e 0023     		movs	r3, #0
 188 0010 8360     		str	r3, [r0, #8]
 104:Core/Src/usart.c ****   huart3.Init.StopBits = UART_STOPBITS_1;
 189              		.loc 1 104 3 is_stmt 1 view .LVU53
 190              		.loc 1 104 24 is_stmt 0 view .LVU54
 191 0012 C360     		str	r3, [r0, #12]
 105:Core/Src/usart.c ****   huart3.Init.Parity = UART_PARITY_NONE;
 192              		.loc 1 105 3 is_stmt 1 view .LVU55
 193              		.loc 1 105 22 is_stmt 0 view .LVU56
 194 0014 0361     		str	r3, [r0, #16]
 106:Core/Src/usart.c ****   huart3.Init.Mode = UART_MODE_TX_RX;
 195              		.loc 1 106 3 is_stmt 1 view .LVU57
 196              		.loc 1 106 20 is_stmt 0 view .LVU58
 197 0016 0C22     		movs	r2, #12
 198 0018 4261     		str	r2, [r0, #20]
 107:Core/Src/usart.c ****   huart3.Init.HwFlowCtl = UART_HWCONTROL_NONE;
 199              		.loc 1 107 3 is_stmt 1 view .LVU59
 200              		.loc 1 107 25 is_stmt 0 view .LVU60
 201 001a 8361     		str	r3, [r0, #24]
 108:Core/Src/usart.c ****   huart3.Init.OverSampling = UART_OVERSAMPLING_16;
 202              		.loc 1 108 3 is_stmt 1 view .LVU61
 203              		.loc 1 108 28 is_stmt 0 view .LVU62
 204 001c C361     		str	r3, [r0, #28]
 109:Core/Src/usart.c ****   if (HAL_UART_Init(&huart3) != HAL_OK)
 205              		.loc 1 109 3 is_stmt 1 view .LVU63
 206              		.loc 1 109 7 is_stmt 0 view .LVU64
 207 001e FFF7FEFF 		bl	HAL_UART_Init
 208              	.LVL4:
 209              		.loc 1 109 6 view .LVU65
 210 0022 00B9     		cbnz	r0, .L16
 211              	.L13:
 110:Core/Src/usart.c ****   {
 111:Core/Src/usart.c ****     Error_Handler();
 112:Core/Src/usart.c ****   }
 113:Core/Src/usart.c ****   /* USER CODE BEGIN USART3_Init 2 */
 114:Core/Src/usart.c **** 
 115:Core/Src/usart.c ****   /* USER CODE END USART3_Init 2 */
 116:Core/Src/usart.c **** 
 117:Core/Src/usart.c **** }
 212              		.loc 1 117 1 view .LVU66
 213 0024 08BD     		pop	{r3, pc}
 214              	.L16:
 111:Core/Src/usart.c ****   }
 215              		.loc 1 111 5 is_stmt 1 view .LVU67
 216 0026 FFF7FEFF 		bl	Error_Handler
 217              	.LVL5:
 218              		.loc 1 117 1 is_stmt 0 view .LVU68
 219 002a FBE7     		b	.L13
 220              	.L18:
 221              		.align	2
 222              	.L17:
 223 002c 00000000 		.word	.LANCHOR2
 224 0030 00480040 		.word	1073760256
 225              		.cfi_endproc
 226              	.LFE67:
 228              		.section	.text.HAL_UART_MspInit,"ax",%progbits
ARM GAS  C:\Users\dung\AppData\Local\Temp\ccUgOtvD.s 			page 7


 229              		.align	1
 230              		.global	HAL_UART_MspInit
 231              		.syntax unified
 232              		.thumb
 233              		.thumb_func
 235              	HAL_UART_MspInit:
 236              	.LVL6:
 237              	.LFB68:
 118:Core/Src/usart.c **** 
 119:Core/Src/usart.c **** void HAL_UART_MspInit(UART_HandleTypeDef* uartHandle)
 120:Core/Src/usart.c **** {
 238              		.loc 1 120 1 is_stmt 1 view -0
 239              		.cfi_startproc
 240              		@ args = 0, pretend = 0, frame = 40
 241              		@ frame_needed = 0, uses_anonymous_args = 0
 242              		.loc 1 120 1 is_stmt 0 view .LVU70
 243 0000 70B5     		push	{r4, r5, r6, lr}
 244              	.LCFI3:
 245              		.cfi_def_cfa_offset 16
 246              		.cfi_offset 4, -16
 247              		.cfi_offset 5, -12
 248              		.cfi_offset 6, -8
 249              		.cfi_offset 14, -4
 250 0002 8AB0     		sub	sp, sp, #40
 251              	.LCFI4:
 252              		.cfi_def_cfa_offset 56
 121:Core/Src/usart.c **** 
 122:Core/Src/usart.c ****   GPIO_InitTypeDef GPIO_InitStruct = {0};
 253              		.loc 1 122 3 is_stmt 1 view .LVU71
 254              		.loc 1 122 20 is_stmt 0 view .LVU72
 255 0004 0023     		movs	r3, #0
 256 0006 0693     		str	r3, [sp, #24]
 257 0008 0793     		str	r3, [sp, #28]
 258 000a 0893     		str	r3, [sp, #32]
 259 000c 0993     		str	r3, [sp, #36]
 123:Core/Src/usart.c ****   if(uartHandle->Instance==USART1)
 260              		.loc 1 123 3 is_stmt 1 view .LVU73
 261              		.loc 1 123 16 is_stmt 0 view .LVU74
 262 000e 0368     		ldr	r3, [r0]
 263              		.loc 1 123 5 view .LVU75
 264 0010 4B4A     		ldr	r2, .L27
 265 0012 9342     		cmp	r3, r2
 266 0014 07D0     		beq	.L24
 124:Core/Src/usart.c ****   {
 125:Core/Src/usart.c ****   /* USER CODE BEGIN USART1_MspInit 0 */
 126:Core/Src/usart.c **** 
 127:Core/Src/usart.c ****   /* USER CODE END USART1_MspInit 0 */
 128:Core/Src/usart.c ****     /* USART1 clock enable */
 129:Core/Src/usart.c ****     __HAL_RCC_USART1_CLK_ENABLE();
 130:Core/Src/usart.c **** 
 131:Core/Src/usart.c ****     __HAL_RCC_GPIOA_CLK_ENABLE();
 132:Core/Src/usart.c ****     /**USART1 GPIO Configuration
 133:Core/Src/usart.c ****     PA9     ------> USART1_TX
 134:Core/Src/usart.c ****     PA10     ------> USART1_RX
 135:Core/Src/usart.c ****     */
 136:Core/Src/usart.c ****     GPIO_InitStruct.Pin = MCU_TXD1_Pin;
 137:Core/Src/usart.c ****     GPIO_InitStruct.Mode = GPIO_MODE_AF_PP;
ARM GAS  C:\Users\dung\AppData\Local\Temp\ccUgOtvD.s 			page 8


 138:Core/Src/usart.c ****     GPIO_InitStruct.Speed = GPIO_SPEED_FREQ_HIGH;
 139:Core/Src/usart.c ****     HAL_GPIO_Init(MCU_TXD1_GPIO_Port, &GPIO_InitStruct);
 140:Core/Src/usart.c **** 
 141:Core/Src/usart.c ****     GPIO_InitStruct.Pin = MCU_RXD1_Pin;
 142:Core/Src/usart.c ****     GPIO_InitStruct.Mode = GPIO_MODE_INPUT;
 143:Core/Src/usart.c ****     GPIO_InitStruct.Pull = GPIO_NOPULL;
 144:Core/Src/usart.c ****     HAL_GPIO_Init(MCU_RXD1_GPIO_Port, &GPIO_InitStruct);
 145:Core/Src/usart.c **** 
 146:Core/Src/usart.c ****   /* USER CODE BEGIN USART1_MspInit 1 */
 147:Core/Src/usart.c **** 
 148:Core/Src/usart.c ****   /* USER CODE END USART1_MspInit 1 */
 149:Core/Src/usart.c ****   }
 150:Core/Src/usart.c ****   else if(uartHandle->Instance==USART2)
 267              		.loc 1 150 8 is_stmt 1 view .LVU76
 268              		.loc 1 150 10 is_stmt 0 view .LVU77
 269 0016 4B4A     		ldr	r2, .L27+4
 270 0018 9342     		cmp	r3, r2
 271 001a 2ED0     		beq	.L25
 151:Core/Src/usart.c ****   {
 152:Core/Src/usart.c ****   /* USER CODE BEGIN USART2_MspInit 0 */
 153:Core/Src/usart.c **** 
 154:Core/Src/usart.c ****   /* USER CODE END USART2_MspInit 0 */
 155:Core/Src/usart.c ****     /* USART2 clock enable */
 156:Core/Src/usart.c ****     __HAL_RCC_USART2_CLK_ENABLE();
 157:Core/Src/usart.c **** 
 158:Core/Src/usart.c ****     __HAL_RCC_GPIOA_CLK_ENABLE();
 159:Core/Src/usart.c ****     /**USART2 GPIO Configuration
 160:Core/Src/usart.c ****     PA2     ------> USART2_TX
 161:Core/Src/usart.c ****     PA3     ------> USART2_RX
 162:Core/Src/usart.c ****     */
 163:Core/Src/usart.c ****     GPIO_InitStruct.Pin = GPIO_PIN_2;
 164:Core/Src/usart.c ****     GPIO_InitStruct.Mode = GPIO_MODE_AF_PP;
 165:Core/Src/usart.c ****     GPIO_InitStruct.Speed = GPIO_SPEED_FREQ_HIGH;
 166:Core/Src/usart.c ****     HAL_GPIO_Init(GPIOA, &GPIO_InitStruct);
 167:Core/Src/usart.c **** 
 168:Core/Src/usart.c ****     GPIO_InitStruct.Pin = GPIO_PIN_3;
 169:Core/Src/usart.c ****     GPIO_InitStruct.Mode = GPIO_MODE_INPUT;
 170:Core/Src/usart.c ****     GPIO_InitStruct.Pull = GPIO_NOPULL;
 171:Core/Src/usart.c ****     HAL_GPIO_Init(GPIOA, &GPIO_InitStruct);
 172:Core/Src/usart.c **** 
 173:Core/Src/usart.c ****     /* USART2 interrupt Init */
 174:Core/Src/usart.c ****     HAL_NVIC_SetPriority(USART2_IRQn, 2, 0);
 175:Core/Src/usart.c ****     HAL_NVIC_EnableIRQ(USART2_IRQn);
 176:Core/Src/usart.c ****   /* USER CODE BEGIN USART2_MspInit 1 */
 177:Core/Src/usart.c **** 
 178:Core/Src/usart.c ****   /* USER CODE END USART2_MspInit 1 */
 179:Core/Src/usart.c ****   }
 180:Core/Src/usart.c ****   else if(uartHandle->Instance==USART3)
 272              		.loc 1 180 8 is_stmt 1 view .LVU78
 273              		.loc 1 180 10 is_stmt 0 view .LVU79
 274 001c 4A4A     		ldr	r2, .L27+8
 275 001e 9342     		cmp	r3, r2
 276 0020 5BD0     		beq	.L26
 277              	.LVL7:
 278              	.L19:
 181:Core/Src/usart.c ****   {
 182:Core/Src/usart.c ****   /* USER CODE BEGIN USART3_MspInit 0 */
ARM GAS  C:\Users\dung\AppData\Local\Temp\ccUgOtvD.s 			page 9


 183:Core/Src/usart.c **** 
 184:Core/Src/usart.c ****   /* USER CODE END USART3_MspInit 0 */
 185:Core/Src/usart.c ****     /* USART3 clock enable */
 186:Core/Src/usart.c ****     __HAL_RCC_USART3_CLK_ENABLE();
 187:Core/Src/usart.c **** 
 188:Core/Src/usart.c ****     __HAL_RCC_GPIOB_CLK_ENABLE();
 189:Core/Src/usart.c ****     /**USART3 GPIO Configuration
 190:Core/Src/usart.c ****     PB10     ------> USART3_TX
 191:Core/Src/usart.c ****     PB11     ------> USART3_RX
 192:Core/Src/usart.c ****     */
 193:Core/Src/usart.c ****     GPIO_InitStruct.Pin = MCU_TXD3_Pin;
 194:Core/Src/usart.c ****     GPIO_InitStruct.Mode = GPIO_MODE_AF_PP;
 195:Core/Src/usart.c ****     GPIO_InitStruct.Speed = GPIO_SPEED_FREQ_HIGH;
 196:Core/Src/usart.c ****     HAL_GPIO_Init(MCU_TXD3_GPIO_Port, &GPIO_InitStruct);
 197:Core/Src/usart.c **** 
 198:Core/Src/usart.c ****     GPIO_InitStruct.Pin = MCU_RXD3_Pin;
 199:Core/Src/usart.c ****     GPIO_InitStruct.Mode = GPIO_MODE_INPUT;
 200:Core/Src/usart.c ****     GPIO_InitStruct.Pull = GPIO_NOPULL;
 201:Core/Src/usart.c ****     HAL_GPIO_Init(MCU_RXD3_GPIO_Port, &GPIO_InitStruct);
 202:Core/Src/usart.c **** 
 203:Core/Src/usart.c ****     /* USART3 interrupt Init */
 204:Core/Src/usart.c ****     HAL_NVIC_SetPriority(USART3_IRQn, 2, 0);
 205:Core/Src/usart.c ****     HAL_NVIC_EnableIRQ(USART3_IRQn);
 206:Core/Src/usart.c ****   /* USER CODE BEGIN USART3_MspInit 1 */
 207:Core/Src/usart.c **** 
 208:Core/Src/usart.c ****   /* USER CODE END USART3_MspInit 1 */
 209:Core/Src/usart.c ****   }
 210:Core/Src/usart.c **** }
 279              		.loc 1 210 1 view .LVU80
 280 0022 0AB0     		add	sp, sp, #40
 281              	.LCFI5:
 282              		.cfi_remember_state
 283              		.cfi_def_cfa_offset 16
 284              		@ sp needed
 285 0024 70BD     		pop	{r4, r5, r6, pc}
 286              	.LVL8:
 287              	.L24:
 288              	.LCFI6:
 289              		.cfi_restore_state
 129:Core/Src/usart.c **** 
 290              		.loc 1 129 5 is_stmt 1 view .LVU81
 291              	.LBB2:
 129:Core/Src/usart.c **** 
 292              		.loc 1 129 5 view .LVU82
 129:Core/Src/usart.c **** 
 293              		.loc 1 129 5 view .LVU83
 294 0026 494B     		ldr	r3, .L27+12
 295 0028 9A69     		ldr	r2, [r3, #24]
 296 002a 42F48042 		orr	r2, r2, #16384
 297 002e 9A61     		str	r2, [r3, #24]
 129:Core/Src/usart.c **** 
 298              		.loc 1 129 5 view .LVU84
 299 0030 9A69     		ldr	r2, [r3, #24]
 300 0032 02F48042 		and	r2, r2, #16384
 301 0036 0092     		str	r2, [sp]
 129:Core/Src/usart.c **** 
 302              		.loc 1 129 5 view .LVU85
ARM GAS  C:\Users\dung\AppData\Local\Temp\ccUgOtvD.s 			page 10


 303 0038 009A     		ldr	r2, [sp]
 304              	.LBE2:
 129:Core/Src/usart.c **** 
 305              		.loc 1 129 5 view .LVU86
 131:Core/Src/usart.c ****     /**USART1 GPIO Configuration
 306              		.loc 1 131 5 view .LVU87
 307              	.LBB3:
 131:Core/Src/usart.c ****     /**USART1 GPIO Configuration
 308              		.loc 1 131 5 view .LVU88
 131:Core/Src/usart.c ****     /**USART1 GPIO Configuration
 309              		.loc 1 131 5 view .LVU89
 310 003a 9A69     		ldr	r2, [r3, #24]
 311 003c 42F00402 		orr	r2, r2, #4
 312 0040 9A61     		str	r2, [r3, #24]
 131:Core/Src/usart.c ****     /**USART1 GPIO Configuration
 313              		.loc 1 131 5 view .LVU90
 314 0042 9B69     		ldr	r3, [r3, #24]
 315 0044 03F00403 		and	r3, r3, #4
 316 0048 0193     		str	r3, [sp, #4]
 131:Core/Src/usart.c ****     /**USART1 GPIO Configuration
 317              		.loc 1 131 5 view .LVU91
 318 004a 019B     		ldr	r3, [sp, #4]
 319              	.LBE3:
 131:Core/Src/usart.c ****     /**USART1 GPIO Configuration
 320              		.loc 1 131 5 view .LVU92
 136:Core/Src/usart.c ****     GPIO_InitStruct.Mode = GPIO_MODE_AF_PP;
 321              		.loc 1 136 5 view .LVU93
 136:Core/Src/usart.c ****     GPIO_InitStruct.Mode = GPIO_MODE_AF_PP;
 322              		.loc 1 136 25 is_stmt 0 view .LVU94
 323 004c 4FF40073 		mov	r3, #512
 324 0050 0693     		str	r3, [sp, #24]
 137:Core/Src/usart.c ****     GPIO_InitStruct.Speed = GPIO_SPEED_FREQ_HIGH;
 325              		.loc 1 137 5 is_stmt 1 view .LVU95
 137:Core/Src/usart.c ****     GPIO_InitStruct.Speed = GPIO_SPEED_FREQ_HIGH;
 326              		.loc 1 137 26 is_stmt 0 view .LVU96
 327 0052 0223     		movs	r3, #2
 328 0054 0793     		str	r3, [sp, #28]
 138:Core/Src/usart.c ****     HAL_GPIO_Init(MCU_TXD1_GPIO_Port, &GPIO_InitStruct);
 329              		.loc 1 138 5 is_stmt 1 view .LVU97
 138:Core/Src/usart.c ****     HAL_GPIO_Init(MCU_TXD1_GPIO_Port, &GPIO_InitStruct);
 330              		.loc 1 138 27 is_stmt 0 view .LVU98
 331 0056 0323     		movs	r3, #3
 332 0058 0993     		str	r3, [sp, #36]
 139:Core/Src/usart.c **** 
 333              		.loc 1 139 5 is_stmt 1 view .LVU99
 334 005a 3D4C     		ldr	r4, .L27+16
 335 005c 06A9     		add	r1, sp, #24
 336 005e 2046     		mov	r0, r4
 337              	.LVL9:
 139:Core/Src/usart.c **** 
 338              		.loc 1 139 5 is_stmt 0 view .LVU100
 339 0060 FFF7FEFF 		bl	HAL_GPIO_Init
 340              	.LVL10:
 141:Core/Src/usart.c ****     GPIO_InitStruct.Mode = GPIO_MODE_INPUT;
 341              		.loc 1 141 5 is_stmt 1 view .LVU101
 141:Core/Src/usart.c ****     GPIO_InitStruct.Mode = GPIO_MODE_INPUT;
 342              		.loc 1 141 25 is_stmt 0 view .LVU102
ARM GAS  C:\Users\dung\AppData\Local\Temp\ccUgOtvD.s 			page 11


 343 0064 4FF48063 		mov	r3, #1024
 344 0068 0693     		str	r3, [sp, #24]
 142:Core/Src/usart.c ****     GPIO_InitStruct.Pull = GPIO_NOPULL;
 345              		.loc 1 142 5 is_stmt 1 view .LVU103
 142:Core/Src/usart.c ****     GPIO_InitStruct.Pull = GPIO_NOPULL;
 346              		.loc 1 142 26 is_stmt 0 view .LVU104
 347 006a 0023     		movs	r3, #0
 348 006c 0793     		str	r3, [sp, #28]
 143:Core/Src/usart.c ****     HAL_GPIO_Init(MCU_RXD1_GPIO_Port, &GPIO_InitStruct);
 349              		.loc 1 143 5 is_stmt 1 view .LVU105
 143:Core/Src/usart.c ****     HAL_GPIO_Init(MCU_RXD1_GPIO_Port, &GPIO_InitStruct);
 350              		.loc 1 143 26 is_stmt 0 view .LVU106
 351 006e 0893     		str	r3, [sp, #32]
 144:Core/Src/usart.c **** 
 352              		.loc 1 144 5 is_stmt 1 view .LVU107
 353 0070 06A9     		add	r1, sp, #24
 354 0072 2046     		mov	r0, r4
 355 0074 FFF7FEFF 		bl	HAL_GPIO_Init
 356              	.LVL11:
 357 0078 D3E7     		b	.L19
 358              	.LVL12:
 359              	.L25:
 156:Core/Src/usart.c **** 
 360              		.loc 1 156 5 view .LVU108
 361              	.LBB4:
 156:Core/Src/usart.c **** 
 362              		.loc 1 156 5 view .LVU109
 156:Core/Src/usart.c **** 
 363              		.loc 1 156 5 view .LVU110
 364 007a 344B     		ldr	r3, .L27+12
 365 007c DA69     		ldr	r2, [r3, #28]
 366 007e 42F40032 		orr	r2, r2, #131072
 367 0082 DA61     		str	r2, [r3, #28]
 156:Core/Src/usart.c **** 
 368              		.loc 1 156 5 view .LVU111
 369 0084 DA69     		ldr	r2, [r3, #28]
 370 0086 02F40032 		and	r2, r2, #131072
 371 008a 0292     		str	r2, [sp, #8]
 156:Core/Src/usart.c **** 
 372              		.loc 1 156 5 view .LVU112
 373 008c 029A     		ldr	r2, [sp, #8]
 374              	.LBE4:
 156:Core/Src/usart.c **** 
 375              		.loc 1 156 5 view .LVU113
 158:Core/Src/usart.c ****     /**USART2 GPIO Configuration
 376              		.loc 1 158 5 view .LVU114
 377              	.LBB5:
 158:Core/Src/usart.c ****     /**USART2 GPIO Configuration
 378              		.loc 1 158 5 view .LVU115
 158:Core/Src/usart.c ****     /**USART2 GPIO Configuration
 379              		.loc 1 158 5 view .LVU116
 380 008e 9A69     		ldr	r2, [r3, #24]
 381 0090 42F00402 		orr	r2, r2, #4
 382 0094 9A61     		str	r2, [r3, #24]
 158:Core/Src/usart.c ****     /**USART2 GPIO Configuration
 383              		.loc 1 158 5 view .LVU117
 384 0096 9B69     		ldr	r3, [r3, #24]
ARM GAS  C:\Users\dung\AppData\Local\Temp\ccUgOtvD.s 			page 12


 385 0098 03F00403 		and	r3, r3, #4
 386 009c 0393     		str	r3, [sp, #12]
 158:Core/Src/usart.c ****     /**USART2 GPIO Configuration
 387              		.loc 1 158 5 view .LVU118
 388 009e 039B     		ldr	r3, [sp, #12]
 389              	.LBE5:
 158:Core/Src/usart.c ****     /**USART2 GPIO Configuration
 390              		.loc 1 158 5 view .LVU119
 163:Core/Src/usart.c ****     GPIO_InitStruct.Mode = GPIO_MODE_AF_PP;
 391              		.loc 1 163 5 view .LVU120
 163:Core/Src/usart.c ****     GPIO_InitStruct.Mode = GPIO_MODE_AF_PP;
 392              		.loc 1 163 25 is_stmt 0 view .LVU121
 393 00a0 0423     		movs	r3, #4
 394 00a2 0693     		str	r3, [sp, #24]
 164:Core/Src/usart.c ****     GPIO_InitStruct.Speed = GPIO_SPEED_FREQ_HIGH;
 395              		.loc 1 164 5 is_stmt 1 view .LVU122
 164:Core/Src/usart.c ****     GPIO_InitStruct.Speed = GPIO_SPEED_FREQ_HIGH;
 396              		.loc 1 164 26 is_stmt 0 view .LVU123
 397 00a4 0225     		movs	r5, #2
 398 00a6 0795     		str	r5, [sp, #28]
 165:Core/Src/usart.c ****     HAL_GPIO_Init(GPIOA, &GPIO_InitStruct);
 399              		.loc 1 165 5 is_stmt 1 view .LVU124
 165:Core/Src/usart.c ****     HAL_GPIO_Init(GPIOA, &GPIO_InitStruct);
 400              		.loc 1 165 27 is_stmt 0 view .LVU125
 401 00a8 0323     		movs	r3, #3
 402 00aa 0993     		str	r3, [sp, #36]
 166:Core/Src/usart.c **** 
 403              		.loc 1 166 5 is_stmt 1 view .LVU126
 404 00ac 284E     		ldr	r6, .L27+16
 405 00ae 06A9     		add	r1, sp, #24
 406 00b0 3046     		mov	r0, r6
 407              	.LVL13:
 166:Core/Src/usart.c **** 
 408              		.loc 1 166 5 is_stmt 0 view .LVU127
 409 00b2 FFF7FEFF 		bl	HAL_GPIO_Init
 410              	.LVL14:
 168:Core/Src/usart.c ****     GPIO_InitStruct.Mode = GPIO_MODE_INPUT;
 411              		.loc 1 168 5 is_stmt 1 view .LVU128
 168:Core/Src/usart.c ****     GPIO_InitStruct.Mode = GPIO_MODE_INPUT;
 412              		.loc 1 168 25 is_stmt 0 view .LVU129
 413 00b6 0823     		movs	r3, #8
 414 00b8 0693     		str	r3, [sp, #24]
 169:Core/Src/usart.c ****     GPIO_InitStruct.Pull = GPIO_NOPULL;
 415              		.loc 1 169 5 is_stmt 1 view .LVU130
 169:Core/Src/usart.c ****     GPIO_InitStruct.Pull = GPIO_NOPULL;
 416              		.loc 1 169 26 is_stmt 0 view .LVU131
 417 00ba 0024     		movs	r4, #0
 418 00bc 0794     		str	r4, [sp, #28]
 170:Core/Src/usart.c ****     HAL_GPIO_Init(GPIOA, &GPIO_InitStruct);
 419              		.loc 1 170 5 is_stmt 1 view .LVU132
 170:Core/Src/usart.c ****     HAL_GPIO_Init(GPIOA, &GPIO_InitStruct);
 420              		.loc 1 170 26 is_stmt 0 view .LVU133
 421 00be 0894     		str	r4, [sp, #32]
 171:Core/Src/usart.c **** 
 422              		.loc 1 171 5 is_stmt 1 view .LVU134
 423 00c0 06A9     		add	r1, sp, #24
 424 00c2 3046     		mov	r0, r6
ARM GAS  C:\Users\dung\AppData\Local\Temp\ccUgOtvD.s 			page 13


 425 00c4 FFF7FEFF 		bl	HAL_GPIO_Init
 426              	.LVL15:
 174:Core/Src/usart.c ****     HAL_NVIC_EnableIRQ(USART2_IRQn);
 427              		.loc 1 174 5 view .LVU135
 428 00c8 2246     		mov	r2, r4
 429 00ca 2946     		mov	r1, r5
 430 00cc 2620     		movs	r0, #38
 431 00ce FFF7FEFF 		bl	HAL_NVIC_SetPriority
 432              	.LVL16:
 175:Core/Src/usart.c ****   /* USER CODE BEGIN USART2_MspInit 1 */
 433              		.loc 1 175 5 view .LVU136
 434 00d2 2620     		movs	r0, #38
 435 00d4 FFF7FEFF 		bl	HAL_NVIC_EnableIRQ
 436              	.LVL17:
 437 00d8 A3E7     		b	.L19
 438              	.LVL18:
 439              	.L26:
 186:Core/Src/usart.c **** 
 440              		.loc 1 186 5 view .LVU137
 441              	.LBB6:
 186:Core/Src/usart.c **** 
 442              		.loc 1 186 5 view .LVU138
 186:Core/Src/usart.c **** 
 443              		.loc 1 186 5 view .LVU139
 444 00da 1C4B     		ldr	r3, .L27+12
 445 00dc DA69     		ldr	r2, [r3, #28]
 446 00de 42F48022 		orr	r2, r2, #262144
 447 00e2 DA61     		str	r2, [r3, #28]
 186:Core/Src/usart.c **** 
 448              		.loc 1 186 5 view .LVU140
 449 00e4 DA69     		ldr	r2, [r3, #28]
 450 00e6 02F48022 		and	r2, r2, #262144
 451 00ea 0492     		str	r2, [sp, #16]
 186:Core/Src/usart.c **** 
 452              		.loc 1 186 5 view .LVU141
 453 00ec 049A     		ldr	r2, [sp, #16]
 454              	.LBE6:
 186:Core/Src/usart.c **** 
 455              		.loc 1 186 5 view .LVU142
 188:Core/Src/usart.c ****     /**USART3 GPIO Configuration
 456              		.loc 1 188 5 view .LVU143
 457              	.LBB7:
 188:Core/Src/usart.c ****     /**USART3 GPIO Configuration
 458              		.loc 1 188 5 view .LVU144
 188:Core/Src/usart.c ****     /**USART3 GPIO Configuration
 459              		.loc 1 188 5 view .LVU145
 460 00ee 9A69     		ldr	r2, [r3, #24]
 461 00f0 42F00802 		orr	r2, r2, #8
 462 00f4 9A61     		str	r2, [r3, #24]
 188:Core/Src/usart.c ****     /**USART3 GPIO Configuration
 463              		.loc 1 188 5 view .LVU146
 464 00f6 9B69     		ldr	r3, [r3, #24]
 465 00f8 03F00803 		and	r3, r3, #8
 466 00fc 0593     		str	r3, [sp, #20]
 188:Core/Src/usart.c ****     /**USART3 GPIO Configuration
 467              		.loc 1 188 5 view .LVU147
 468 00fe 059B     		ldr	r3, [sp, #20]
ARM GAS  C:\Users\dung\AppData\Local\Temp\ccUgOtvD.s 			page 14


 469              	.LBE7:
 188:Core/Src/usart.c ****     /**USART3 GPIO Configuration
 470              		.loc 1 188 5 view .LVU148
 193:Core/Src/usart.c ****     GPIO_InitStruct.Mode = GPIO_MODE_AF_PP;
 471              		.loc 1 193 5 view .LVU149
 193:Core/Src/usart.c ****     GPIO_InitStruct.Mode = GPIO_MODE_AF_PP;
 472              		.loc 1 193 25 is_stmt 0 view .LVU150
 473 0100 4FF48063 		mov	r3, #1024
 474 0104 0693     		str	r3, [sp, #24]
 194:Core/Src/usart.c ****     GPIO_InitStruct.Speed = GPIO_SPEED_FREQ_HIGH;
 475              		.loc 1 194 5 is_stmt 1 view .LVU151
 194:Core/Src/usart.c ****     GPIO_InitStruct.Speed = GPIO_SPEED_FREQ_HIGH;
 476              		.loc 1 194 26 is_stmt 0 view .LVU152
 477 0106 0225     		movs	r5, #2
 478 0108 0795     		str	r5, [sp, #28]
 195:Core/Src/usart.c ****     HAL_GPIO_Init(MCU_TXD3_GPIO_Port, &GPIO_InitStruct);
 479              		.loc 1 195 5 is_stmt 1 view .LVU153
 195:Core/Src/usart.c ****     HAL_GPIO_Init(MCU_TXD3_GPIO_Port, &GPIO_InitStruct);
 480              		.loc 1 195 27 is_stmt 0 view .LVU154
 481 010a 0323     		movs	r3, #3
 482 010c 0993     		str	r3, [sp, #36]
 196:Core/Src/usart.c **** 
 483              		.loc 1 196 5 is_stmt 1 view .LVU155
 484 010e 114E     		ldr	r6, .L27+20
 485 0110 06A9     		add	r1, sp, #24
 486 0112 3046     		mov	r0, r6
 487              	.LVL19:
 196:Core/Src/usart.c **** 
 488              		.loc 1 196 5 is_stmt 0 view .LVU156
 489 0114 FFF7FEFF 		bl	HAL_GPIO_Init
 490              	.LVL20:
 198:Core/Src/usart.c ****     GPIO_InitStruct.Mode = GPIO_MODE_INPUT;
 491              		.loc 1 198 5 is_stmt 1 view .LVU157
 198:Core/Src/usart.c ****     GPIO_InitStruct.Mode = GPIO_MODE_INPUT;
 492              		.loc 1 198 25 is_stmt 0 view .LVU158
 493 0118 4FF40063 		mov	r3, #2048
 494 011c 0693     		str	r3, [sp, #24]
 199:Core/Src/usart.c ****     GPIO_InitStruct.Pull = GPIO_NOPULL;
 495              		.loc 1 199 5 is_stmt 1 view .LVU159
 199:Core/Src/usart.c ****     GPIO_InitStruct.Pull = GPIO_NOPULL;
 496              		.loc 1 199 26 is_stmt 0 view .LVU160
 497 011e 0024     		movs	r4, #0
 498 0120 0794     		str	r4, [sp, #28]
 200:Core/Src/usart.c ****     HAL_GPIO_Init(MCU_RXD3_GPIO_Port, &GPIO_InitStruct);
 499              		.loc 1 200 5 is_stmt 1 view .LVU161
 200:Core/Src/usart.c ****     HAL_GPIO_Init(MCU_RXD3_GPIO_Port, &GPIO_InitStruct);
 500              		.loc 1 200 26 is_stmt 0 view .LVU162
 501 0122 0894     		str	r4, [sp, #32]
 201:Core/Src/usart.c **** 
 502              		.loc 1 201 5 is_stmt 1 view .LVU163
 503 0124 06A9     		add	r1, sp, #24
 504 0126 3046     		mov	r0, r6
 505 0128 FFF7FEFF 		bl	HAL_GPIO_Init
 506              	.LVL21:
 204:Core/Src/usart.c ****     HAL_NVIC_EnableIRQ(USART3_IRQn);
 507              		.loc 1 204 5 view .LVU164
 508 012c 2246     		mov	r2, r4
ARM GAS  C:\Users\dung\AppData\Local\Temp\ccUgOtvD.s 			page 15


 509 012e 2946     		mov	r1, r5
 510 0130 2720     		movs	r0, #39
 511 0132 FFF7FEFF 		bl	HAL_NVIC_SetPriority
 512              	.LVL22:
 205:Core/Src/usart.c ****   /* USER CODE BEGIN USART3_MspInit 1 */
 513              		.loc 1 205 5 view .LVU165
 514 0136 2720     		movs	r0, #39
 515 0138 FFF7FEFF 		bl	HAL_NVIC_EnableIRQ
 516              	.LVL23:
 517              		.loc 1 210 1 is_stmt 0 view .LVU166
 518 013c 71E7     		b	.L19
 519              	.L28:
 520 013e 00BF     		.align	2
 521              	.L27:
 522 0140 00380140 		.word	1073821696
 523 0144 00440040 		.word	1073759232
 524 0148 00480040 		.word	1073760256
 525 014c 00100240 		.word	1073876992
 526 0150 00080140 		.word	1073809408
 527 0154 000C0140 		.word	1073810432
 528              		.cfi_endproc
 529              	.LFE68:
 531              		.section	.text.HAL_UART_MspDeInit,"ax",%progbits
 532              		.align	1
 533              		.global	HAL_UART_MspDeInit
 534              		.syntax unified
 535              		.thumb
 536              		.thumb_func
 538              	HAL_UART_MspDeInit:
 539              	.LVL24:
 540              	.LFB69:
 211:Core/Src/usart.c **** 
 212:Core/Src/usart.c **** void HAL_UART_MspDeInit(UART_HandleTypeDef* uartHandle)
 213:Core/Src/usart.c **** {
 541              		.loc 1 213 1 is_stmt 1 view -0
 542              		.cfi_startproc
 543              		@ args = 0, pretend = 0, frame = 0
 544              		@ frame_needed = 0, uses_anonymous_args = 0
 545              		.loc 1 213 1 is_stmt 0 view .LVU168
 546 0000 08B5     		push	{r3, lr}
 547              	.LCFI7:
 548              		.cfi_def_cfa_offset 8
 549              		.cfi_offset 3, -8
 550              		.cfi_offset 14, -4
 214:Core/Src/usart.c **** 
 215:Core/Src/usart.c ****   if(uartHandle->Instance==USART1)
 551              		.loc 1 215 3 is_stmt 1 view .LVU169
 552              		.loc 1 215 16 is_stmt 0 view .LVU170
 553 0002 0368     		ldr	r3, [r0]
 554              		.loc 1 215 5 view .LVU171
 555 0004 194A     		ldr	r2, .L37
 556 0006 9342     		cmp	r3, r2
 557 0008 06D0     		beq	.L34
 216:Core/Src/usart.c ****   {
 217:Core/Src/usart.c ****   /* USER CODE BEGIN USART1_MspDeInit 0 */
 218:Core/Src/usart.c **** 
 219:Core/Src/usart.c ****   /* USER CODE END USART1_MspDeInit 0 */
ARM GAS  C:\Users\dung\AppData\Local\Temp\ccUgOtvD.s 			page 16


 220:Core/Src/usart.c ****     /* Peripheral clock disable */
 221:Core/Src/usart.c ****     __HAL_RCC_USART1_CLK_DISABLE();
 222:Core/Src/usart.c **** 
 223:Core/Src/usart.c ****     /**USART1 GPIO Configuration
 224:Core/Src/usart.c ****     PA9     ------> USART1_TX
 225:Core/Src/usart.c ****     PA10     ------> USART1_RX
 226:Core/Src/usart.c ****     */
 227:Core/Src/usart.c ****     HAL_GPIO_DeInit(GPIOA, MCU_TXD1_Pin|MCU_RXD1_Pin);
 228:Core/Src/usart.c **** 
 229:Core/Src/usart.c ****   /* USER CODE BEGIN USART1_MspDeInit 1 */
 230:Core/Src/usart.c **** 
 231:Core/Src/usart.c ****   /* USER CODE END USART1_MspDeInit 1 */
 232:Core/Src/usart.c ****   }
 233:Core/Src/usart.c ****   else if(uartHandle->Instance==USART2)
 558              		.loc 1 233 8 is_stmt 1 view .LVU172
 559              		.loc 1 233 10 is_stmt 0 view .LVU173
 560 000a 194A     		ldr	r2, .L37+4
 561 000c 9342     		cmp	r3, r2
 562 000e 0FD0     		beq	.L35
 234:Core/Src/usart.c ****   {
 235:Core/Src/usart.c ****   /* USER CODE BEGIN USART2_MspDeInit 0 */
 236:Core/Src/usart.c **** 
 237:Core/Src/usart.c ****   /* USER CODE END USART2_MspDeInit 0 */
 238:Core/Src/usart.c ****     /* Peripheral clock disable */
 239:Core/Src/usart.c ****     __HAL_RCC_USART2_CLK_DISABLE();
 240:Core/Src/usart.c **** 
 241:Core/Src/usart.c ****     /**USART2 GPIO Configuration
 242:Core/Src/usart.c ****     PA2     ------> USART2_TX
 243:Core/Src/usart.c ****     PA3     ------> USART2_RX
 244:Core/Src/usart.c ****     */
 245:Core/Src/usart.c ****     HAL_GPIO_DeInit(GPIOA, GPIO_PIN_2|GPIO_PIN_3);
 246:Core/Src/usart.c **** 
 247:Core/Src/usart.c ****     /* USART2 interrupt Deinit */
 248:Core/Src/usart.c ****     HAL_NVIC_DisableIRQ(USART2_IRQn);
 249:Core/Src/usart.c ****   /* USER CODE BEGIN USART2_MspDeInit 1 */
 250:Core/Src/usart.c **** 
 251:Core/Src/usart.c ****   /* USER CODE END USART2_MspDeInit 1 */
 252:Core/Src/usart.c ****   }
 253:Core/Src/usart.c ****   else if(uartHandle->Instance==USART3)
 563              		.loc 1 253 8 is_stmt 1 view .LVU174
 564              		.loc 1 253 10 is_stmt 0 view .LVU175
 565 0010 184A     		ldr	r2, .L37+8
 566 0012 9342     		cmp	r3, r2
 567 0014 1AD0     		beq	.L36
 568              	.LVL25:
 569              	.L29:
 254:Core/Src/usart.c ****   {
 255:Core/Src/usart.c ****   /* USER CODE BEGIN USART3_MspDeInit 0 */
 256:Core/Src/usart.c **** 
 257:Core/Src/usart.c ****   /* USER CODE END USART3_MspDeInit 0 */
 258:Core/Src/usart.c ****     /* Peripheral clock disable */
 259:Core/Src/usart.c ****     __HAL_RCC_USART3_CLK_DISABLE();
 260:Core/Src/usart.c **** 
 261:Core/Src/usart.c ****     /**USART3 GPIO Configuration
 262:Core/Src/usart.c ****     PB10     ------> USART3_TX
 263:Core/Src/usart.c ****     PB11     ------> USART3_RX
 264:Core/Src/usart.c ****     */
ARM GAS  C:\Users\dung\AppData\Local\Temp\ccUgOtvD.s 			page 17


 265:Core/Src/usart.c ****     HAL_GPIO_DeInit(GPIOB, MCU_TXD3_Pin|MCU_RXD3_Pin);
 266:Core/Src/usart.c **** 
 267:Core/Src/usart.c ****     /* USART3 interrupt Deinit */
 268:Core/Src/usart.c ****     HAL_NVIC_DisableIRQ(USART3_IRQn);
 269:Core/Src/usart.c ****   /* USER CODE BEGIN USART3_MspDeInit 1 */
 270:Core/Src/usart.c **** 
 271:Core/Src/usart.c ****   /* USER CODE END USART3_MspDeInit 1 */
 272:Core/Src/usart.c ****   }
 273:Core/Src/usart.c **** }
 570              		.loc 1 273 1 view .LVU176
 571 0016 08BD     		pop	{r3, pc}
 572              	.LVL26:
 573              	.L34:
 221:Core/Src/usart.c **** 
 574              		.loc 1 221 5 is_stmt 1 view .LVU177
 575 0018 02F55842 		add	r2, r2, #55296
 576 001c 9369     		ldr	r3, [r2, #24]
 577 001e 23F48043 		bic	r3, r3, #16384
 578 0022 9361     		str	r3, [r2, #24]
 227:Core/Src/usart.c **** 
 579              		.loc 1 227 5 view .LVU178
 580 0024 4FF4C061 		mov	r1, #1536
 581 0028 1348     		ldr	r0, .L37+12
 582              	.LVL27:
 227:Core/Src/usart.c **** 
 583              		.loc 1 227 5 is_stmt 0 view .LVU179
 584 002a FFF7FEFF 		bl	HAL_GPIO_DeInit
 585              	.LVL28:
 586 002e F2E7     		b	.L29
 587              	.LVL29:
 588              	.L35:
 239:Core/Src/usart.c **** 
 589              		.loc 1 239 5 is_stmt 1 view .LVU180
 590 0030 02F5E632 		add	r2, r2, #117760
 591 0034 D369     		ldr	r3, [r2, #28]
 592 0036 23F40033 		bic	r3, r3, #131072
 593 003a D361     		str	r3, [r2, #28]
 245:Core/Src/usart.c **** 
 594              		.loc 1 245 5 view .LVU181
 595 003c 0C21     		movs	r1, #12
 596 003e 0E48     		ldr	r0, .L37+12
 597              	.LVL30:
 245:Core/Src/usart.c **** 
 598              		.loc 1 245 5 is_stmt 0 view .LVU182
 599 0040 FFF7FEFF 		bl	HAL_GPIO_DeInit
 600              	.LVL31:
 248:Core/Src/usart.c ****   /* USER CODE BEGIN USART2_MspDeInit 1 */
 601              		.loc 1 248 5 is_stmt 1 view .LVU183
 602 0044 2620     		movs	r0, #38
 603 0046 FFF7FEFF 		bl	HAL_NVIC_DisableIRQ
 604              	.LVL32:
 605 004a E4E7     		b	.L29
 606              	.LVL33:
 607              	.L36:
 259:Core/Src/usart.c **** 
 608              		.loc 1 259 5 view .LVU184
 609 004c 02F5E432 		add	r2, r2, #116736
ARM GAS  C:\Users\dung\AppData\Local\Temp\ccUgOtvD.s 			page 18


 610 0050 D369     		ldr	r3, [r2, #28]
 611 0052 23F48023 		bic	r3, r3, #262144
 612 0056 D361     		str	r3, [r2, #28]
 265:Core/Src/usart.c **** 
 613              		.loc 1 265 5 view .LVU185
 614 0058 4FF44061 		mov	r1, #3072
 615 005c 0748     		ldr	r0, .L37+16
 616              	.LVL34:
 265:Core/Src/usart.c **** 
 617              		.loc 1 265 5 is_stmt 0 view .LVU186
 618 005e FFF7FEFF 		bl	HAL_GPIO_DeInit
 619              	.LVL35:
 268:Core/Src/usart.c ****   /* USER CODE BEGIN USART3_MspDeInit 1 */
 620              		.loc 1 268 5 is_stmt 1 view .LVU187
 621 0062 2720     		movs	r0, #39
 622 0064 FFF7FEFF 		bl	HAL_NVIC_DisableIRQ
 623              	.LVL36:
 624              		.loc 1 273 1 is_stmt 0 view .LVU188
 625 0068 D5E7     		b	.L29
 626              	.L38:
 627 006a 00BF     		.align	2
 628              	.L37:
 629 006c 00380140 		.word	1073821696
 630 0070 00440040 		.word	1073759232
 631 0074 00480040 		.word	1073760256
 632 0078 00080140 		.word	1073809408
 633 007c 000C0140 		.word	1073810432
 634              		.cfi_endproc
 635              	.LFE69:
 637              		.global	huart3
 638              		.global	huart2
 639              		.global	huart1
 640              		.section	.bss.huart1,"aw",%nobits
 641              		.align	2
 642              		.set	.LANCHOR0,. + 0
 645              	huart1:
 646 0000 00000000 		.space	68
 646      00000000 
 646      00000000 
 646      00000000 
 646      00000000 
 647              		.section	.bss.huart2,"aw",%nobits
 648              		.align	2
 649              		.set	.LANCHOR1,. + 0
 652              	huart2:
 653 0000 00000000 		.space	68
 653      00000000 
 653      00000000 
 653      00000000 
 653      00000000 
 654              		.section	.bss.huart3,"aw",%nobits
 655              		.align	2
 656              		.set	.LANCHOR2,. + 0
 659              	huart3:
 660 0000 00000000 		.space	68
 660      00000000 
 660      00000000 
ARM GAS  C:\Users\dung\AppData\Local\Temp\ccUgOtvD.s 			page 19


 660      00000000 
 660      00000000 
 661              		.text
 662              	.Letext0:
 663              		.file 2 "c:\\program files (x86)\\gcc-arm-none-eabi-10.3-2021.10-win32\\gcc-arm-none-eabi-10.3-202
 664              		.file 3 "c:\\program files (x86)\\gcc-arm-none-eabi-10.3-2021.10-win32\\gcc-arm-none-eabi-10.3-202
 665              		.file 4 "Drivers/CMSIS/Device/ST/STM32F1xx/Include/stm32f103xb.h"
 666              		.file 5 "Drivers/STM32F1xx_HAL_Driver/Inc/stm32f1xx_hal_def.h"
 667              		.file 6 "Drivers/STM32F1xx_HAL_Driver/Inc/stm32f1xx_hal_gpio.h"
 668              		.file 7 "Drivers/STM32F1xx_HAL_Driver/Inc/stm32f1xx_hal_dma.h"
 669              		.file 8 "Drivers/STM32F1xx_HAL_Driver/Inc/stm32f1xx_hal_uart.h"
 670              		.file 9 "Core/Inc/usart.h"
 671              		.file 10 "Drivers/STM32F1xx_HAL_Driver/Inc/stm32f1xx_hal_cortex.h"
 672              		.file 11 "Core/Inc/main.h"
ARM GAS  C:\Users\dung\AppData\Local\Temp\ccUgOtvD.s 			page 20

